Archive member included because of file (symbol)

D:\synergy\ccm_wa\tmbo\ME_ECS\HMI_devel-tmbo_bes_1211\HMI_devel\gnuc\bes\m68k-bes-rtems4.9\lib\mcpu32/libstdc++.a(class_type_info.o)
                              prom/flsh_memory.o (vtable for __cxxabiv1::__class_type_info)
D:\synergy\ccm_wa\tmbo\ME_ECS\HMI_devel-tmbo_bes_1211\HMI_devel\gnuc\bes\m68k-bes-rtems4.9\lib\mcpu32/libstdc++.a(del_opv.o)
                              prom/flsh_device.o (operator delete[](void*))
D:\synergy\ccm_wa\tmbo\ME_ECS\HMI_devel-tmbo_bes_1211\HMI_devel\gnuc\bes\m68k-bes-rtems4.9\lib\mcpu32/libstdc++.a(new_opv.o)
                              prom/flsh_device.o (operator new[](unsigned long))
D:\synergy\ccm_wa\tmbo\ME_ECS\HMI_devel-tmbo_bes_1211\HMI_devel\gnuc\bes\m68k-bes-rtems4.9\lib\mcpu32/libstdc++.a(si_class_type_info.o)
                              prom/flsh_device.o (vtable for __cxxabiv1::__si_class_type_info)
D:\synergy\ccm_wa\tmbo\ME_ECS\HMI_devel-tmbo_bes_1211\HMI_devel\gnuc\bes\m68k-bes-rtems4.9\lib\mcpu32/libstdc++.a(tinfo.o)
                              D:\synergy\ccm_wa\tmbo\ME_ECS\HMI_devel-tmbo_bes_1211\HMI_devel\gnuc\bes\m68k-bes-rtems4.9\lib\mcpu32/libstdc++.a(class_type_info.o) (std::type_info::~type_info())
D:\synergy\ccm_wa\tmbo\ME_ECS\HMI_devel-tmbo_bes_1211\HMI_devel\gnuc\bes\m68k-bes-rtems4.9\lib\mcpu32/libstdc++.a(vmi_class_type_info.o)
                              prom/krnl_crttsk.o (vtable for __cxxabiv1::__vmi_class_type_info)
D:\synergy\ccm_wa\tmbo\ME_ECS\HMI_devel-tmbo_bes_1211\HMI_devel\gnuc\bes\m68k-bes-rtems4.9\lib\mcpu32/libm.a(lib_a-s_floor.o)
                              prom/testsoftfloat.o (floor)
D:\synergy\ccm_wa\tmbo\ME_ECS\HMI_devel-tmbo_bes_1211\HMI_devel\gnuc\bes\m68k-bes-rtems4.9\lib\mcpu32/libm.a(lib_a-w_sqrt.o)
                              prom/testsoftfloat.o (sqrt)
D:\synergy\ccm_wa\tmbo\ME_ECS\HMI_devel-tmbo_bes_1211\HMI_devel\gnuc\bes\m68k-bes-rtems4.9\lib\mcpu32/libm.a(lib_a-e_sqrt.o)
                              D:\synergy\ccm_wa\tmbo\ME_ECS\HMI_devel-tmbo_bes_1211\HMI_devel\gnuc\bes\m68k-bes-rtems4.9\lib\mcpu32/libm.a(lib_a-w_sqrt.o) (__ieee754_sqrt)
D:\synergy\ccm_wa\tmbo\ME_ECS\HMI_devel-tmbo_bes_1211\HMI_devel\gnuc\bes\m68k-bes-rtems4.9\lib\mcpu32/libm.a(lib_a-s_isnand.o)
                              D:\synergy\ccm_wa\tmbo\ME_ECS\HMI_devel-tmbo_bes_1211\HMI_devel\gnuc\bes\m68k-bes-rtems4.9\lib\mcpu32/libm.a(lib_a-w_sqrt.o) (__isnand)
D:\synergy\ccm_wa\tmbo\ME_ECS\HMI_devel-tmbo_bes_1211\HMI_devel\gnuc\bes\m68k-bes-rtems4.9\lib\mcpu32/libm.a(lib_a-s_lib_ver.o)
                              D:\synergy\ccm_wa\tmbo\ME_ECS\HMI_devel-tmbo_bes_1211\HMI_devel\gnuc\bes\m68k-bes-rtems4.9\lib\mcpu32/libm.a(lib_a-w_sqrt.o) (__fdlib_version)
D:\synergy\ccm_wa\tmbo\ME_ECS\HMI_devel-tmbo_bes_1211\HMI_devel\gnuc\bes\m68k-bes-rtems4.9\lib\mcpu32/libm.a(lib_a-s_matherr.o)
                              D:\synergy\ccm_wa\tmbo\ME_ECS\HMI_devel-tmbo_bes_1211\HMI_devel\gnuc\bes\m68k-bes-rtems4.9\lib\mcpu32/libm.a(lib_a-w_sqrt.o) (matherr)
D:\synergy\ccm_wa\tmbo\ME_ECS\HMI_devel-tmbo_bes_1211\HMI_devel\gnuc\bes\lib\gcc\m68k-bes-rtems4.9\4.3.2\mcpu32/libgcc.a(_double.o)
                              prom/testsoftfloat.o (__adddf3)
D:\synergy\ccm_wa\tmbo\ME_ECS\HMI_devel-tmbo_bes_1211\HMI_devel\gnuc\bes\lib\gcc\m68k-bes-rtems4.9\4.3.2\mcpu32/libgcc.a(_float.o)
                              prom/testsoftfloat.o (__addsf3)
D:\synergy\ccm_wa\tmbo\ME_ECS\HMI_devel-tmbo_bes_1211\HMI_devel\gnuc\bes\lib\gcc\m68k-bes-rtems4.9\4.3.2\mcpu32/libgcc.a(_floatex.o)
                              D:\synergy\ccm_wa\tmbo\ME_ECS\HMI_devel-tmbo_bes_1211\HMI_devel\gnuc\bes\lib\gcc\m68k-bes-rtems4.9\4.3.2\mcpu32/libgcc.a(_double.o) (_fpCCR)
D:\synergy\ccm_wa\tmbo\ME_ECS\HMI_devel-tmbo_bes_1211\HMI_devel\gnuc\bes\lib\gcc\m68k-bes-rtems4.9\4.3.2\mcpu32/libgcc.a(_gtdf2.o)
                              D:\synergy\ccm_wa\tmbo\ME_ECS\HMI_devel-tmbo_bes_1211\HMI_devel\gnuc\bes\m68k-bes-rtems4.9\lib\mcpu32/libm.a(lib_a-s_floor.o) (__gtdf2)
D:\synergy\ccm_wa\tmbo\ME_ECS\HMI_devel-tmbo_bes_1211\HMI_devel\gnuc\bes\lib\gcc\m68k-bes-rtems4.9\4.3.2\mcpu32/libgcc.a(_ltdf2.o)
                              D:\synergy\ccm_wa\tmbo\ME_ECS\HMI_devel-tmbo_bes_1211\HMI_devel\gnuc\bes\m68k-bes-rtems4.9\lib\mcpu32/libm.a(lib_a-w_sqrt.o) (__ltdf2)
D:\synergy\ccm_wa\tmbo\ME_ECS\HMI_devel-tmbo_bes_1211\HMI_devel\gnuc\bes\lib\gcc\m68k-bes-rtems4.9\4.3.2\mcpu32/libgcc.a(fpgnulib.o)
                              prom/testsoftfloat.o (__truncdfsf2)
D:\synergy\ccm_wa\tmbo\ME_ECS\HMI_devel-tmbo_bes_1211\HMI_devel\gnuc\bes\m68k-bes-rtems4.9\lib\mcpu32/libc.a(lib_a-abs.o)
                              prom/testsoftfloat.o (abs)
D:\synergy\ccm_wa\tmbo\ME_ECS\HMI_devel-tmbo_bes_1211\HMI_devel\gnuc\bes\m68k-bes-rtems4.9\lib\mcpu32/libc.a(lib_a-atexit.o)
                              prom/flsh_manager.o (atexit)
D:\synergy\ccm_wa\tmbo\ME_ECS\HMI_devel-tmbo_bes_1211\HMI_devel\gnuc\bes\m68k-bes-rtems4.9\lib\mcpu32/libc.a(lib_a-atoi.o)
                              prom/rtxcbug.o (atoi)
D:\synergy\ccm_wa\tmbo\ME_ECS\HMI_devel-tmbo_bes_1211\HMI_devel\gnuc\bes\m68k-bes-rtems4.9\lib\mcpu32/libc.a(lib_a-errno.o)
                              D:\synergy\ccm_wa\tmbo\ME_ECS\HMI_devel-tmbo_bes_1211\HMI_devel\gnuc\bes\m68k-bes-rtems4.9\lib\mcpu32/libm.a(lib_a-w_sqrt.o) (__errno)
D:\synergy\ccm_wa\tmbo\ME_ECS\HMI_devel-tmbo_bes_1211\HMI_devel\gnuc\bes\m68k-bes-rtems4.9\lib\mcpu32/libc.a(lib_a-exit.o)
                              prom/entry.o (exit)
D:\synergy\ccm_wa\tmbo\ME_ECS\HMI_devel-tmbo_bes_1211\HMI_devel\gnuc\bes\m68k-bes-rtems4.9\lib\mcpu32/libc.a(lib_a-impure.o)
                              D:\synergy\ccm_wa\tmbo\ME_ECS\HMI_devel-tmbo_bes_1211\HMI_devel\gnuc\bes\m68k-bes-rtems4.9\lib\mcpu32/libc.a(lib_a-errno.o) (_impure_ptr)
D:\synergy\ccm_wa\tmbo\ME_ECS\HMI_devel-tmbo_bes_1211\HMI_devel\gnuc\bes\m68k-bes-rtems4.9\lib\mcpu32/libc.a(lib_a-init.o)
                              prom/entry.o (__libc_init_array)
D:\synergy\ccm_wa\tmbo\ME_ECS\HMI_devel-tmbo_bes_1211\HMI_devel\gnuc\bes\m68k-bes-rtems4.9\lib\mcpu32/libc.a(lib_a-memset.o)
                              prom/new.o (memset)
D:\synergy\ccm_wa\tmbo\ME_ECS\HMI_devel-tmbo_bes_1211\HMI_devel\gnuc\bes\m68k-bes-rtems4.9\lib\mcpu32/libc.a(lib_a-sprintf.o)
                              prom/testsoftfloat.o (sprintf)
D:\synergy\ccm_wa\tmbo\ME_ECS\HMI_devel-tmbo_bes_1211\HMI_devel\gnuc\bes\m68k-bes-rtems4.9\lib\mcpu32/libc.a(lib_a-strcmp.o)
                              prom/krnl_alog.o (strcmp)
D:\synergy\ccm_wa\tmbo\ME_ECS\HMI_devel-tmbo_bes_1211\HMI_devel\gnuc\bes\m68k-bes-rtems4.9\lib\mcpu32/libc.a(lib_a-strcpy.o)
                              prom/krnl_xcptin.o (strcpy)
D:\synergy\ccm_wa\tmbo\ME_ECS\HMI_devel-tmbo_bes_1211\HMI_devel\gnuc\bes\m68k-bes-rtems4.9\lib\mcpu32/libc.a(lib_a-strlen.o)
                              prom/krnl_xcptin.o (strlen)
D:\synergy\ccm_wa\tmbo\ME_ECS\HMI_devel-tmbo_bes_1211\HMI_devel\gnuc\bes\m68k-bes-rtems4.9\lib\mcpu32/libc.a(lib_a-strncmp.o)
                              prom/EEPromOnB.o (strncmp)
D:\synergy\ccm_wa\tmbo\ME_ECS\HMI_devel-tmbo_bes_1211\HMI_devel\gnuc\bes\m68k-bes-rtems4.9\lib\mcpu32/libc.a(lib_a-strtol.o)
                              D:\synergy\ccm_wa\tmbo\ME_ECS\HMI_devel-tmbo_bes_1211\HMI_devel\gnuc\bes\m68k-bes-rtems4.9\lib\mcpu32/libc.a(lib_a-atoi.o) (_strtol_r)
D:\synergy\ccm_wa\tmbo\ME_ECS\HMI_devel-tmbo_bes_1211\HMI_devel\gnuc\bes\m68k-bes-rtems4.9\lib\mcpu32/libc.a(lib_a-vfprintf.o)
                              D:\synergy\ccm_wa\tmbo\ME_ECS\HMI_devel-tmbo_bes_1211\HMI_devel\gnuc\bes\m68k-bes-rtems4.9\lib\mcpu32/libc.a(lib_a-sprintf.o) (_vfprintf_r)
D:\synergy\ccm_wa\tmbo\ME_ECS\HMI_devel-tmbo_bes_1211\HMI_devel\gnuc\bes\m68k-bes-rtems4.9\lib\mcpu32/libc.a(lib_a-vsprintf.o)
                              prom/krnl_astd.o (vsprintf)
D:\synergy\ccm_wa\tmbo\ME_ECS\HMI_devel-tmbo_bes_1211\HMI_devel\gnuc\bes\m68k-bes-rtems4.9\lib\mcpu32/libc.a(lib_a-wsetup.o)
                              D:\synergy\ccm_wa\tmbo\ME_ECS\HMI_devel-tmbo_bes_1211\HMI_devel\gnuc\bes\m68k-bes-rtems4.9\lib\mcpu32/libc.a(lib_a-vfprintf.o) (__swsetup_r)
D:\synergy\ccm_wa\tmbo\ME_ECS\HMI_devel-tmbo_bes_1211\HMI_devel\gnuc\bes\m68k-bes-rtems4.9\lib\mcpu32/libc.a(lib_a-__atexit.o)
                              D:\synergy\ccm_wa\tmbo\ME_ECS\HMI_devel-tmbo_bes_1211\HMI_devel\gnuc\bes\m68k-bes-rtems4.9\lib\mcpu32/libc.a(lib_a-atexit.o) (__register_exitproc)
D:\synergy\ccm_wa\tmbo\ME_ECS\HMI_devel-tmbo_bes_1211\HMI_devel\gnuc\bes\m68k-bes-rtems4.9\lib\mcpu32/libc.a(lib_a-__call_atexit.o)
                              D:\synergy\ccm_wa\tmbo\ME_ECS\HMI_devel-tmbo_bes_1211\HMI_devel\gnuc\bes\m68k-bes-rtems4.9\lib\mcpu32/libc.a(lib_a-exit.o) (__call_exitprocs)
D:\synergy\ccm_wa\tmbo\ME_ECS\HMI_devel-tmbo_bes_1211\HMI_devel\gnuc\bes\m68k-bes-rtems4.9\lib\mcpu32/libc.a(lib_a-ctype_.o)
                              D:\synergy\ccm_wa\tmbo\ME_ECS\HMI_devel-tmbo_bes_1211\HMI_devel\gnuc\bes\m68k-bes-rtems4.9\lib\mcpu32/libc.a(lib_a-strtol.o) (__ctype_ptr)
D:\synergy\ccm_wa\tmbo\ME_ECS\HMI_devel-tmbo_bes_1211\HMI_devel\gnuc\bes\m68k-bes-rtems4.9\lib\mcpu32/libc.a(lib_a-dtoa.o)
                              D:\synergy\ccm_wa\tmbo\ME_ECS\HMI_devel-tmbo_bes_1211\HMI_devel\gnuc\bes\m68k-bes-rtems4.9\lib\mcpu32/libc.a(lib_a-vfprintf.o) (_dtoa_r)
D:\synergy\ccm_wa\tmbo\ME_ECS\HMI_devel-tmbo_bes_1211\HMI_devel\gnuc\bes\m68k-bes-rtems4.9\lib\mcpu32/libc.a(lib_a-fflush.o)
                              D:\synergy\ccm_wa\tmbo\ME_ECS\HMI_devel-tmbo_bes_1211\HMI_devel\gnuc\bes\m68k-bes-rtems4.9\lib\mcpu32/libc.a(lib_a-vfprintf.o) (_fflush_r)
D:\synergy\ccm_wa\tmbo\ME_ECS\HMI_devel-tmbo_bes_1211\HMI_devel\gnuc\bes\m68k-bes-rtems4.9\lib\mcpu32/libc.a(lib_a-findfp.o)
                              D:\synergy\ccm_wa\tmbo\ME_ECS\HMI_devel-tmbo_bes_1211\HMI_devel\gnuc\bes\m68k-bes-rtems4.9\lib\mcpu32/libc.a(lib_a-vfprintf.o) (__sinit)
D:\synergy\ccm_wa\tmbo\ME_ECS\HMI_devel-tmbo_bes_1211\HMI_devel\gnuc\bes\m68k-bes-rtems4.9\lib\mcpu32/libc.a(lib_a-fvwrite.o)
                              D:\synergy\ccm_wa\tmbo\ME_ECS\HMI_devel-tmbo_bes_1211\HMI_devel\gnuc\bes\m68k-bes-rtems4.9\lib\mcpu32/libc.a(lib_a-vfprintf.o) (__sfvwrite_r)
D:\synergy\ccm_wa\tmbo\ME_ECS\HMI_devel-tmbo_bes_1211\HMI_devel\gnuc\bes\m68k-bes-rtems4.9\lib\mcpu32/libc.a(lib_a-fwalk.o)
                              D:\synergy\ccm_wa\tmbo\ME_ECS\HMI_devel-tmbo_bes_1211\HMI_devel\gnuc\bes\m68k-bes-rtems4.9\lib\mcpu32/libc.a(lib_a-fflush.o) (_fwalk_reent)
D:\synergy\ccm_wa\tmbo\ME_ECS\HMI_devel-tmbo_bes_1211\HMI_devel\gnuc\bes\m68k-bes-rtems4.9\lib\mcpu32/libc.a(lib_a-locale.o)
                              D:\synergy\ccm_wa\tmbo\ME_ECS\HMI_devel-tmbo_bes_1211\HMI_devel\gnuc\bes\m68k-bes-rtems4.9\lib\mcpu32/libc.a(lib_a-vfprintf.o) (_localeconv_r)
D:\synergy\ccm_wa\tmbo\ME_ECS\HMI_devel-tmbo_bes_1211\HMI_devel\gnuc\bes\m68k-bes-rtems4.9\lib\mcpu32/libc.a(lib_a-makebuf.o)
                              D:\synergy\ccm_wa\tmbo\ME_ECS\HMI_devel-tmbo_bes_1211\HMI_devel\gnuc\bes\m68k-bes-rtems4.9\lib\mcpu32/libc.a(lib_a-wsetup.o) (__smakebuf_r)
D:\synergy\ccm_wa\tmbo\ME_ECS\HMI_devel-tmbo_bes_1211\HMI_devel\gnuc\bes\m68k-bes-rtems4.9\lib\mcpu32/libc.a(lib_a-memchr.o)
                              D:\synergy\ccm_wa\tmbo\ME_ECS\HMI_devel-tmbo_bes_1211\HMI_devel\gnuc\bes\m68k-bes-rtems4.9\lib\mcpu32/libc.a(lib_a-vfprintf.o) (memchr)
D:\synergy\ccm_wa\tmbo\ME_ECS\HMI_devel-tmbo_bes_1211\HMI_devel\gnuc\bes\m68k-bes-rtems4.9\lib\mcpu32/libc.a(lib_a-memmove.o)
                              D:\synergy\ccm_wa\tmbo\ME_ECS\HMI_devel-tmbo_bes_1211\HMI_devel\gnuc\bes\m68k-bes-rtems4.9\lib\mcpu32/libc.a(lib_a-fvwrite.o) (memmove)
D:\synergy\ccm_wa\tmbo\ME_ECS\HMI_devel-tmbo_bes_1211\HMI_devel\gnuc\bes\m68k-bes-rtems4.9\lib\mcpu32/libc.a(lib_a-mprec.o)
                              D:\synergy\ccm_wa\tmbo\ME_ECS\HMI_devel-tmbo_bes_1211\HMI_devel\gnuc\bes\m68k-bes-rtems4.9\lib\mcpu32/libc.a(lib_a-dtoa.o) (_Bfree)
D:\synergy\ccm_wa\tmbo\ME_ECS\HMI_devel-tmbo_bes_1211\HMI_devel\gnuc\bes\m68k-bes-rtems4.9\lib\mcpu32/libc.a(lib_a-s_frexp.o)
                              D:\synergy\ccm_wa\tmbo\ME_ECS\HMI_devel-tmbo_bes_1211\HMI_devel\gnuc\bes\m68k-bes-rtems4.9\lib\mcpu32/libc.a(lib_a-vfprintf.o) (frexp)
D:\synergy\ccm_wa\tmbo\ME_ECS\HMI_devel-tmbo_bes_1211\HMI_devel\gnuc\bes\m68k-bes-rtems4.9\lib\mcpu32/libc.a(lib_a-s_isinfd.o)
                              D:\synergy\ccm_wa\tmbo\ME_ECS\HMI_devel-tmbo_bes_1211\HMI_devel\gnuc\bes\m68k-bes-rtems4.9\lib\mcpu32/libc.a(lib_a-vfprintf.o) (__isinfd)
D:\synergy\ccm_wa\tmbo\ME_ECS\HMI_devel-tmbo_bes_1211\HMI_devel\gnuc\bes\m68k-bes-rtems4.9\lib\mcpu32/libc.a(lib_a-stdio.o)
                              D:\synergy\ccm_wa\tmbo\ME_ECS\HMI_devel-tmbo_bes_1211\HMI_devel\gnuc\bes\m68k-bes-rtems4.9\lib\mcpu32/libc.a(lib_a-findfp.o) (__sclose)
D:\synergy\ccm_wa\tmbo\ME_ECS\HMI_devel-tmbo_bes_1211\HMI_devel\gnuc\bes\m68k-bes-rtems4.9\lib\mcpu32/libc.a(lib_a-fclose.o)
                              D:\synergy\ccm_wa\tmbo\ME_ECS\HMI_devel-tmbo_bes_1211\HMI_devel\gnuc\bes\m68k-bes-rtems4.9\lib\mcpu32/libc.a(lib_a-findfp.o) (fclose)
D:\synergy\ccm_wa\tmbo\ME_ECS\HMI_devel-tmbo_bes_1211\HMI_devel\gnuc\bes\lib\gcc\m68k-bes-rtems4.9\4.3.2\mcpu32/libgcc.a(_eqdf2.o)
                              D:\synergy\ccm_wa\tmbo\ME_ECS\HMI_devel-tmbo_bes_1211\HMI_devel\gnuc\bes\m68k-bes-rtems4.9\lib\mcpu32/libc.a(lib_a-vfprintf.o) (__eqdf2)
D:\synergy\ccm_wa\tmbo\ME_ECS\HMI_devel-tmbo_bes_1211\HMI_devel\gnuc\bes\lib\gcc\m68k-bes-rtems4.9\4.3.2\mcpu32/libgcc.a(_nedf2.o)
                              D:\synergy\ccm_wa\tmbo\ME_ECS\HMI_devel-tmbo_bes_1211\HMI_devel\gnuc\bes\m68k-bes-rtems4.9\lib\mcpu32/libc.a(lib_a-vfprintf.o) (__nedf2)
D:\synergy\ccm_wa\tmbo\ME_ECS\HMI_devel-tmbo_bes_1211\HMI_devel\gnuc\bes\lib\gcc\m68k-bes-rtems4.9\4.3.2\mcpu32/libgcc.a(_gedf2.o)
                              D:\synergy\ccm_wa\tmbo\ME_ECS\HMI_devel-tmbo_bes_1211\HMI_devel\gnuc\bes\m68k-bes-rtems4.9\lib\mcpu32/libc.a(lib_a-dtoa.o) (__gedf2)
D:\synergy\ccm_wa\tmbo\ME_ECS\HMI_devel-tmbo_bes_1211\HMI_devel\gnuc\bes\lib\gcc\m68k-bes-rtems4.9\4.3.2\mcpu32/libgcc.a(_udivdi3.o)
                              D:\synergy\ccm_wa\tmbo\ME_ECS\HMI_devel-tmbo_bes_1211\HMI_devel\gnuc\bes\m68k-bes-rtems4.9\lib\mcpu32/libc.a(lib_a-vfprintf.o) (__udivdi3)
D:\synergy\ccm_wa\tmbo\ME_ECS\HMI_devel-tmbo_bes_1211\HMI_devel\gnuc\bes\lib\gcc\m68k-bes-rtems4.9\4.3.2\mcpu32/libgcc.a(_umoddi3.o)
                              D:\synergy\ccm_wa\tmbo\ME_ECS\HMI_devel-tmbo_bes_1211\HMI_devel\gnuc\bes\m68k-bes-rtems4.9\lib\mcpu32/libc.a(lib_a-vfprintf.o) (__umoddi3)
D:\synergy\ccm_wa\tmbo\ME_ECS\HMI_devel-tmbo_bes_1211\HMI_devel\gnuc\bes\lib\gcc\m68k-bes-rtems4.9\4.3.2\mcpu32/libgcc.a(xfgnulib.o)
                              D:\synergy\ccm_wa\tmbo\ME_ECS\HMI_devel-tmbo_bes_1211\HMI_devel\gnuc\bes\m68k-bes-rtems4.9\lib\mcpu32/libc.a(lib_a-vfprintf.o) (__truncxfdf2)
D:\synergy\ccm_wa\tmbo\ME_ECS\HMI_devel-tmbo_bes_1211\HMI_devel\gnuc\bes\lib\gcc\m68k-bes-rtems4.9\4.3.2\mcpu32/libgcc.a(_clz.o)
                              D:\synergy\ccm_wa\tmbo\ME_ECS\HMI_devel-tmbo_bes_1211\HMI_devel\gnuc\bes\lib\gcc\m68k-bes-rtems4.9\4.3.2\mcpu32/libgcc.a(_udivdi3.o) (__clz_tab)

Discarded input sections

 _ZZ24krnl_convertFromMsToTickmE21MAXIMUM_MILLI_SECONDS
                0x00000000        0x0 prom/runsf.o
 _ZTV10flsh_Block
                0x00000000        0x0 prom/flsh_device.o
 _ZTV11flsh_Device
                0x00000000        0x0 prom/flsh_device.o
 _ZTS10flsh_Block
                0x00000000        0x0 prom/flsh_device.o
 _ZTI10flsh_Block
                0x00000000        0x0 prom/flsh_device.o
 _ZTS11flsh_Device
                0x00000000        0x0 prom/flsh_device.o
 _ZTI11flsh_Device
                0x00000000        0x0 prom/flsh_device.o
 _ZN16flsh_DeviceAm29FD1Ev
                0x00000000        0x0 prom/flsh_device_amd.o
 _ZN16flsh_DeviceAm29FD0Ev
                0x00000000        0x0 prom/flsh_device_amd.o
 _ZN15flsh_BlockAm29FD0Ev
                0x00000000        0x0 prom/flsh_device_amd.o
 _ZN15flsh_BlockAm29FD1Ev
                0x00000000        0x0 prom/flsh_device_amd.o
 _ZTV21flsh_DeviceAm29F800BB
                0x00000000        0x0 prom/flsh_device_amd.o
 _ZTV15flsh_BlockAm29F
                0x00000000        0x0 prom/flsh_device_amd.o
 _ZTV16flsh_DeviceAm29F
                0x00000000        0x0 prom/flsh_device_amd.o
 _ZTS21flsh_DeviceAm29F800BB
                0x00000000        0x0 prom/flsh_device_amd.o
 _ZTI21flsh_DeviceAm29F800BB
                0x00000000        0x0 prom/flsh_device_amd.o
 _ZTS15flsh_BlockAm29F
                0x00000000        0x0 prom/flsh_device_amd.o
 _ZTI15flsh_BlockAm29F
                0x00000000        0x0 prom/flsh_device_amd.o
 _ZTS16flsh_DeviceAm29F
                0x00000000        0x0 prom/flsh_device_amd.o
 _ZTI16flsh_DeviceAm29F
                0x00000000        0x0 prom/flsh_device_amd.o
 _ZN15flsh_DeviceI28FD1Ev
                0x00000000        0x0 prom/flsh_device_intel.o
 _ZN15flsh_DeviceI28FD0Ev
                0x00000000        0x0 prom/flsh_device_intel.o
 _ZN14flsh_BlockI28FD0Ev
                0x00000000        0x0 prom/flsh_device_intel.o
 _ZN14flsh_BlockI28FD1Ev
                0x00000000        0x0 prom/flsh_device_intel.o
 _ZTV20flsh_DeviceI28F800B5
                0x00000000        0x0 prom/flsh_device_intel.o
 _ZTV14flsh_BlockI28F
                0x00000000        0x0 prom/flsh_device_intel.o
 _ZTV15flsh_DeviceI28F
                0x00000000        0x0 prom/flsh_device_intel.o
 _ZTS20flsh_DeviceI28F800B5
                0x00000000        0x0 prom/flsh_device_intel.o
 _ZTI20flsh_DeviceI28F800B5
                0x00000000        0x0 prom/flsh_device_intel.o
 _ZTS14flsh_BlockI28F
                0x00000000        0x0 prom/flsh_device_intel.o
 _ZTI14flsh_BlockI28F
                0x00000000        0x0 prom/flsh_device_intel.o
 _ZTS15flsh_DeviceI28F
                0x00000000        0x0 prom/flsh_device_intel.o
 _ZTI15flsh_DeviceI28F
                0x00000000        0x0 prom/flsh_device_intel.o
 _ZN14flsh_DeviceRamD1Ev
                0x00000000        0x0 prom/flsh_device_ram.o
 _ZN14flsh_DeviceRamD0Ev
                0x00000000        0x0 prom/flsh_device_ram.o
 _ZN13flsh_BlockRamD0Ev
                0x00000000        0x0 prom/flsh_device_ram.o
 _ZN13flsh_BlockRamD1Ev
                0x00000000        0x0 prom/flsh_device_ram.o
 _ZTV21flsh_DeviceRamUniform
                0x00000000        0x0 prom/flsh_device_ram.o
 _ZTV13flsh_BlockRam
                0x00000000        0x0 prom/flsh_device_ram.o
 _ZTV14flsh_DeviceRam
                0x00000000        0x0 prom/flsh_device_ram.o
 _ZTS21flsh_DeviceRamUniform
                0x00000000        0x0 prom/flsh_device_ram.o
 _ZTI21flsh_DeviceRamUniform
                0x00000000        0x0 prom/flsh_device_ram.o
 _ZTS13flsh_BlockRam
                0x00000000        0x0 prom/flsh_device_ram.o
 _ZTI13flsh_BlockRam
                0x00000000        0x0 prom/flsh_device_ram.o
 _ZTS14flsh_DeviceRam
                0x00000000        0x0 prom/flsh_device_ram.o
 _ZTI14flsh_DeviceRam
                0x00000000        0x0 prom/flsh_device_ram.o
 _ZN16krnl_FlashMemoryItEC2EP11flsh_MemoryP20krnl_StorageResource
                0x00000000        0x0 prom/flsh_manager.o
 _ZN15krnl_FlashBlockItEC1EP10flsh_BlockP20krnl_StorageResource
                0x00000000        0x0 prom/flsh_manager.o
 _ZN16krnl_FlashDeviceItEC4EP11flsh_Device
                0x00000000        0x0 prom/flsh_manager.o
 _ZN16krnl_FlashDeviceItEC1EP11flsh_Device
                0x00000000        0x0 prom/flsh_manager.o
 _ZN16krnl_FlashMemoryIhEC2EP11flsh_MemoryP20krnl_StorageResource
                0x00000000        0x0 prom/flsh_manager.o
 _ZN15krnl_FlashBlockIhEC1EP10flsh_BlockP20krnl_StorageResource
                0x00000000        0x0 prom/flsh_manager.o
 _ZN16krnl_FlashDeviceIhEC4EP11flsh_Device
                0x00000000        0x0 prom/flsh_manager.o
 _ZN16krnl_FlashDeviceIhEC1EP11flsh_Device
                0x00000000        0x0 prom/flsh_manager.o
 _ZN16krnl_FlashDeviceItED1Ev
                0x00000000        0x0 prom/flsh_manager.o
 _ZN16krnl_FlashDeviceIhED1Ev
                0x00000000        0x0 prom/flsh_manager.o
 _ZTV11flsh_Memory
                0x00000000        0x0 prom/flsh_memory.o
 _ZTS11flsh_Memory
                0x00000000        0x0 prom/flsh_memory.o
 _ZTI11flsh_Memory
                0x00000000        0x0 prom/flsh_memory.o
 _ZN20krnl_SingleTaskTimerD0Ev
                0x00000000        0x0 prom/krnl_astd.o
 _ZN20krnl_SingleTaskTimerD1Ev
                0x00000000        0x0 prom/krnl_astd.o
 _ZTV20krnl_SingleTaskTimer
                0x00000000        0x0 prom/krnl_astd.o
 _ZTS20krnl_SingleTaskTimer
                0x00000000        0x0 prom/krnl_astd.o
 _ZTI20krnl_SingleTaskTimer
                0x00000000        0x0 prom/krnl_astd.o
 _ZTV23krnl_TestableAssertions
                0x00000000        0x0 prom/krnl_atst.o
 _ZTS23krnl_TestableAssertions
                0x00000000        0x0 prom/krnl_atst.o
 _ZTI23krnl_TestableAssertions
                0x00000000        0x0 prom/krnl_atst.o
 _ZTI33krnl_SimpleTestableAssertionsImpl
                0x00000000        0x0 prom/krnl_atst.o
 _ZTS33krnl_SimpleTestableAssertionsImpl
                0x00000000        0x0 prom/krnl_atst.o
 _ZTV33krnl_SimpleTestableAssertionsImpl
                0x00000000        0x0 prom/krnl_atst.o
 _ZNK12ListRegistryI28krnl_ProgrammedResetObserverE7GetNextEv
                0x00000000        0x0 prom/krnl_alog.o
 _ZN20krnl_SingleTaskTimerD0Ev
                0x00000000        0x0 prom/krnl_alog.o
 _ZN20krnl_SingleTaskTimerD1Ev
                0x00000000        0x0 prom/krnl_alog.o
 _ZTV22krnl_AssertLogIterator
                0x00000000        0x0 prom/krnl_alog.o
 _ZTV14krnl_AssertLog
                0x00000000        0x0 prom/krnl_alog.o
 _ZTV27krnl_AssertLogResetObserver
                0x00000000        0x0 prom/krnl_alog.o
 _ZTV20krnl_SingleTaskTimer
                0x00000000        0x0 prom/krnl_alog.o
 _ZTS27krnl_AssertLogResetObserver
                0x00000000        0x0 prom/krnl_alog.o
 _ZTI27krnl_AssertLogResetObserver
                0x00000000        0x0 prom/krnl_alog.o
 _ZTS22krnl_AssertLogIterator
                0x00000000        0x0 prom/krnl_alog.o
 _ZTI22krnl_AssertLogIterator
                0x00000000        0x0 prom/krnl_alog.o
 _ZTS14krnl_AssertLog
                0x00000000        0x0 prom/krnl_alog.o
 _ZTI14krnl_AssertLog
                0x00000000        0x0 prom/krnl_alog.o
 _ZTS20krnl_SingleTaskTimer
                0x00000000        0x0 prom/krnl_alog.o
 _ZTI20krnl_SingleTaskTimer
                0x00000000        0x0 prom/krnl_alog.o
 _ZTI28krnl_ProgrammedResetObserver
                0x00000000        0x0 prom/krnl_alog.o
 _ZTS28krnl_ProgrammedResetObserver
                0x00000000        0x0 prom/krnl_alog.o
 _ZTI12ListRegistryI28krnl_ProgrammedResetObserverE
                0x00000000        0x0 prom/krnl_alog.o
 _ZTS12ListRegistryI28krnl_ProgrammedResetObserverE
                0x00000000        0x0 prom/krnl_alog.o
 _ZZ24krnl_convertFromMsToTickmE21MAXIMUM_MILLI_SECONDS
                0x00000000        0x0 prom/krnl_alog.o
 _ZTV28krnl_ProgrammedResetObserver
                0x00000000        0x0 prom/krnl_alog.o
 _ZTV12ListRegistryI28krnl_ProgrammedResetObserverE
                0x00000000        0x0 prom/krnl_alog.o
 .text._ZN20krnl_SingleTaskTimerD0Ev
                0x00000000        0x0 prom/krnl_alog.o
 .text._ZN20krnl_SingleTaskTimerD1Ev
                0x00000000        0x0 prom/krnl_alog.o
 .rodata._ZTV20krnl_SingleTaskTimer
                0x00000000        0x0 prom/krnl_alog.o
 .rodata._ZTS20krnl_SingleTaskTimer
                0x00000000        0x0 prom/krnl_alog.o
 .rodata._ZTI20krnl_SingleTaskTimer
                0x00000000        0x0 prom/krnl_alog.o
 .rodata._ZZ24krnl_convertFromMsToTickmE21MAXIMUM_MILLI_SECONDS
                0x00000000        0x0 prom/krnl_alog.o
 _ZN16krnl_FlashVectorI19krnl_AssertLogEntryE5clearEv
                0x00000000        0x0 prom/krnl_asto.o
 _ZN16krnl_FlashMemoryIhE7programEPVhPKhm
                0x00000000        0x0 prom/krnl_asto.o
 _ZN16krnl_FlashVectorI19krnl_AssertLogEntryE8pushBackERKS0_
                0x00000000        0x0 prom/krnl_asto.o
 _ZN16krnl_FlashVectorI19krnl_AssertLogEntryEC1EP16krnl_FlashMemoryIhE
                0x00000000        0x0 prom/krnl_asto.o
 _ZTV29krnl_AssertLogStorageIterator
                0x00000000        0x0 prom/krnl_asto.o
 _ZTS29krnl_AssertLogStorageIterator
                0x00000000        0x0 prom/krnl_asto.o
 _ZTI29krnl_AssertLogStorageIterator
                0x00000000        0x0 prom/krnl_asto.o
 _ZN20krnl_SingleTaskTimerD0Ev
                0x00000000        0x0 prom/krnl_xwdh.o
 _ZN20krnl_SingleTaskTimerD1Ev
                0x00000000        0x0 prom/krnl_xwdh.o
 _ZTV16ExtWdHandlerTask
                0x00000000        0x0 prom/krnl_xwdh.o
 _ZTV20krnl_SingleTaskTimer
                0x00000000        0x0 prom/krnl_xwdh.o
 _ZTS16ExtWdHandlerTask
                0x00000000        0x0 prom/krnl_xwdh.o
 _ZTI16ExtWdHandlerTask
                0x00000000        0x0 prom/krnl_xwdh.o
 _ZTS20krnl_SingleTaskTimer
                0x00000000        0x0 prom/krnl_xwdh.o
 _ZTI20krnl_SingleTaskTimer
                0x00000000        0x0 prom/krnl_xwdh.o
 _ZZ24krnl_convertFromMsToTickmE21MAXIMUM_MILLI_SECONDS
                0x00000000        0x0 prom/krnl_xwdh.o
 .text._ZN20krnl_SingleTaskTimerD0Ev
                0x00000000        0x0 prom/krnl_xwdh.o
 .text._ZN20krnl_SingleTaskTimerD1Ev
                0x00000000        0x0 prom/krnl_xwdh.o
 .rodata._ZTV20krnl_SingleTaskTimer
                0x00000000        0x0 prom/krnl_xwdh.o
 .rodata._ZTS20krnl_SingleTaskTimer
                0x00000000        0x0 prom/krnl_xwdh.o
 .rodata._ZTI20krnl_SingleTaskTimer
                0x00000000        0x0 prom/krnl_xwdh.o
 .rodata._ZZ24krnl_convertFromMsToTickmE21MAXIMUM_MILLI_SECONDS
                0x00000000        0x0 prom/krnl_xwdh.o
 _ZZ24krnl_convertFromMsToTickmE21MAXIMUM_MILLI_SECONDS
                0x00000000        0x0 prom/krnl_flmem.o
 .rodata._ZZ24krnl_convertFromMsToTickmE21MAXIMUM_MILLI_SECONDS
                0x00000000        0x0 prom/krnl_flmem.o
 _ZN16krnl_FlashMemoryIhE7programEPVhPKhm
                0x00000000        0x0 prom/krnl_flstr.o
 _ZTV22krnl_FlashOutputStream
                0x00000000        0x0 prom/krnl_flstr.o
 _ZTV21krnl_FlashInputStream
                0x00000000        0x0 prom/krnl_flstr.o
 _ZTV12krnl_IosBase
                0x00000000        0x0 prom/krnl_flstr.o
 _ZTS22krnl_FlashOutputStream
                0x00000000        0x0 prom/krnl_flstr.o
 _ZTI22krnl_FlashOutputStream
                0x00000000        0x0 prom/krnl_flstr.o
 _ZTS21krnl_FlashInputStream
                0x00000000        0x0 prom/krnl_flstr.o
 _ZTI21krnl_FlashInputStream
                0x00000000        0x0 prom/krnl_flstr.o
 _ZTS12krnl_IosBase
                0x00000000        0x0 prom/krnl_flstr.o
 _ZTI12krnl_IosBase
                0x00000000        0x0 prom/krnl_flstr.o
 .text._ZN16krnl_FlashMemoryIhE7programEPVhPKhm
                0x00000000        0x0 prom/krnl_flstr.o
 _ZN19krnl_WaitableObject11waitTimeoutEm
                0x00000000        0x0 prom/krnl_stores.o
 _ZN19krnl_WaitableObject4waitEv
                0x00000000        0x0 prom/krnl_stores.o
 _ZZ24krnl_convertFromMsToTickmE21MAXIMUM_MILLI_SECONDS
                0x00000000        0x0 prom/krnl_stores.o
 .rodata._ZZ24krnl_convertFromMsToTickmE21MAXIMUM_MILLI_SECONDS
                0x00000000        0x0 prom/krnl_stores.o
 _ZZ24krnl_convertFromMsToTickmE21MAXIMUM_MILLI_SECONDS
                0x00000000        0x0 prom/krnl_nclk_r.o
 .rodata._ZZ24krnl_convertFromMsToTickmE21MAXIMUM_MILLI_SECONDS
                0x00000000        0x0 prom/krnl_nclk_r.o
 _ZN20krnl_SingleTaskTimerD0Ev
                0x00000000        0x0 prom/krnl_crttsk.o
 _ZN20krnl_SingleTaskTimerD1Ev
                0x00000000        0x0 prom/krnl_crttsk.o
 _ZTV21krnl_TimeCriticalTask
                0x00000000        0x0 prom/krnl_crttsk.o
 _ZTV28krnl_TimeCriticalTaskMonitor
                0x00000000        0x0 prom/krnl_crttsk.o
 _ZTV25krnl_TimeCriticalTaskBase
                0x00000000        0x0 prom/krnl_crttsk.o
 _ZTV20krnl_SingleTaskTimer
                0x00000000        0x0 prom/krnl_crttsk.o
 _ZTS21krnl_TimeCriticalTask
                0x00000000        0x0 prom/krnl_crttsk.o
 _ZTI21krnl_TimeCriticalTask
                0x00000000        0x0 prom/krnl_crttsk.o
 _ZTS28krnl_TimeCriticalTaskMonitor
                0x00000000        0x0 prom/krnl_crttsk.o
 _ZTI28krnl_TimeCriticalTaskMonitor
                0x00000000        0x0 prom/krnl_crttsk.o
 _ZTS25krnl_TimeCriticalTaskBase
                0x00000000        0x0 prom/krnl_crttsk.o
 _ZTI25krnl_TimeCriticalTaskBase
                0x00000000        0x0 prom/krnl_crttsk.o
 _ZTS20krnl_SingleTaskTimer
                0x00000000        0x0 prom/krnl_crttsk.o
 _ZTI20krnl_SingleTaskTimer
                0x00000000        0x0 prom/krnl_crttsk.o
 _ZZ24krnl_convertFromMsToTickmE21MAXIMUM_MILLI_SECONDS
                0x00000000        0x0 prom/krnl_crttsk.o
 .text._ZN20krnl_SingleTaskTimerD0Ev
                0x00000000        0x0 prom/krnl_crttsk.o
 .text._ZN20krnl_SingleTaskTimerD1Ev
                0x00000000        0x0 prom/krnl_crttsk.o
 .rodata._ZTV20krnl_SingleTaskTimer
                0x00000000        0x0 prom/krnl_crttsk.o
 .rodata._ZTS20krnl_SingleTaskTimer
                0x00000000        0x0 prom/krnl_crttsk.o
 .rodata._ZTI20krnl_SingleTaskTimer
                0x00000000        0x0 prom/krnl_crttsk.o
 .rodata._ZZ24krnl_convertFromMsToTickmE21MAXIMUM_MILLI_SECONDS
                0x00000000        0x0 prom/krnl_crttsk.o
 _ZTV15krnl_SimpleTask
                0x00000000        0x0 prom/krnl_stask.o
 _ZTS15krnl_SimpleTask
                0x00000000        0x0 prom/krnl_stask.o
 _ZTI15krnl_SimpleTask
                0x00000000        0x0 prom/krnl_stask.o
 _ZTV14krnl_RtxcQueue
                0x00000000        0x0 prom/krnl_queue_r.o
 _ZTS14krnl_RtxcQueue
                0x00000000        0x0 prom/krnl_queue_r.o
 _ZTI14krnl_RtxcQueue
                0x00000000        0x0 prom/krnl_queue_r.o
 _ZZ24krnl_convertFromMsToTickmE21MAXIMUM_MILLI_SECONDS
                0x00000000        0x0 prom/krnl_queue_r.o
 .rodata._ZZ24krnl_convertFromMsToTickmE21MAXIMUM_MILLI_SECONDS
                0x00000000        0x0 prom/krnl_queue_r.o
 _ZTV13krnl_Resource
                0x00000000        0x0 prom/krnl_res_r.o
 _ZTS13krnl_Resource
                0x00000000        0x0 prom/krnl_res_r.o
 _ZTI13krnl_Resource
                0x00000000        0x0 prom/krnl_res_r.o
 _ZTV14krnl_Semaphore
                0x00000000        0x0 prom/krnl_sema_r.o
 _ZTS14krnl_Semaphore
                0x00000000        0x0 prom/krnl_sema_r.o
 _ZTI14krnl_Semaphore
                0x00000000        0x0 prom/krnl_sema_r.o
 _ZTV9krnl_Task
                0x00000000        0x0 prom/krnl_task_r.o
 _ZTS9krnl_Task
                0x00000000        0x0 prom/krnl_task_r.o
 _ZTI9krnl_Task
                0x00000000        0x0 prom/krnl_task_r.o
 _ZTV19krnl_WaitableObject
                0x00000000        0x0 prom/krnl_wait_r.o
 _ZTS19krnl_WaitableObject
                0x00000000        0x0 prom/krnl_wait_r.o
 _ZTI19krnl_WaitableObject
                0x00000000        0x0 prom/krnl_wait_r.o
 _ZN12ListRegistryI28krnl_ProgrammedResetObserverE9get_firstEv
                0x00000000        0x0 prom/krnl_reset.o
 _ZZN12ListRegistryI28krnl_ProgrammedResetObserverE9get_firstEvE11local_first
                0x00000000        0x0 prom/krnl_reset.o
 _ZTV40krnl_InitialSimpleTestableAssertionsImpl
                0x00000000        0x0 prom/krnl_satst.o
 _ZTS40krnl_InitialSimpleTestableAssertionsImpl
                0x00000000        0x0 prom/krnl_satst.o
 _ZTI40krnl_InitialSimpleTestableAssertionsImpl
                0x00000000        0x0 prom/krnl_satst.o
 _ZTI33krnl_SimpleTestableAssertionsImpl
                0x00000000        0x0 prom/krnl_satst.o
 _ZTS33krnl_SimpleTestableAssertionsImpl
                0x00000000        0x0 prom/krnl_satst.o
 _ZTV33krnl_SimpleTestableAssertionsImpl
                0x00000000        0x0 prom/krnl_satst.o
 .rodata._ZTI33krnl_SimpleTestableAssertionsImpl
                0x00000000        0x0 prom/krnl_satst.o
 .rodata._ZTS33krnl_SimpleTestableAssertionsImpl
                0x00000000        0x0 prom/krnl_satst.o
 .rodata._ZTV33krnl_SimpleTestableAssertionsImpl
                0x00000000        0x0 prom/krnl_satst.o
 _ZTV20krnl_SciResourceUser
                0x00000000        0x0 prom/krnl_scires.o
 _ZTS20krnl_SciResourceUser
                0x00000000        0x0 prom/krnl_scires.o
 _ZTI20krnl_SciResourceUser
                0x00000000        0x0 prom/krnl_scires.o
 _ZN14krnl_SciDriver15flowCharRequestEc
                0x00000000        0x0 prom/krnl_scidrv_m.o
 _ZN14krnl_SciDriverD0Ev
                0x00000000        0x0 prom/krnl_scidrv_m.o
 _ZN14krnl_SciDriverD1Ev
                0x00000000        0x0 prom/krnl_scidrv_m.o
 _ZTV14krnl_SciDriver
                0x00000000        0x0 prom/krnl_scidrv_m.o
 _ZTI14krnl_SciDriver
                0x00000000        0x0 prom/krnl_scidrv_m.o
 _ZTS14krnl_SciDriver
                0x00000000        0x0 prom/krnl_scidrv_m.o
 _ZZ24krnl_convertFromMsToTickmE21MAXIMUM_MILLI_SECONDS
                0x00000000        0x0 prom/krnl_scidrv_m.o
 .rodata._ZZ24krnl_convertFromMsToTickmE21MAXIMUM_MILLI_SECONDS
                0x00000000        0x0 prom/krnl_scidrv_m.o
 _ZN20krnl_SingleTaskTimerD0Ev
                0x00000000        0x0 prom/krnl_init_m.o
 _ZN20krnl_SingleTaskTimerD1Ev
                0x00000000        0x0 prom/krnl_init_m.o
 _ZTV20krnl_SingleTaskTimer
                0x00000000        0x0 prom/krnl_init_m.o
 _ZTS20krnl_SingleTaskTimer
                0x00000000        0x0 prom/krnl_init_m.o
 _ZTI20krnl_SingleTaskTimer
                0x00000000        0x0 prom/krnl_init_m.o
 .text._ZN20krnl_SingleTaskTimerD0Ev
                0x00000000        0x0 prom/krnl_init_m.o
 .text._ZN20krnl_SingleTaskTimerD1Ev
                0x00000000        0x0 prom/krnl_init_m.o
 .rodata._ZTV20krnl_SingleTaskTimer
                0x00000000        0x0 prom/krnl_init_m.o
 .rodata._ZTS20krnl_SingleTaskTimer
                0x00000000        0x0 prom/krnl_init_m.o
 .rodata._ZTI20krnl_SingleTaskTimer
                0x00000000        0x0 prom/krnl_init_m.o
 _ZN12ListRegistryI22krnl_RtxcClockCallbackE9get_firstEv
                0x00000000        0x0 prom/krnl_rclk_m.o
 _ZZN12ListRegistryI22krnl_RtxcClockCallbackE9get_firstEvE11local_first
                0x00000000        0x0 prom/krnl_rclk_m.o
 _ZTV21krnl_TraceChannelImpl
                0x00000000        0x0 prom/krnl_trcchnl.o
 _ZTS21krnl_TraceChannelImpl
                0x00000000        0x0 prom/krnl_trcchnl.o
 _ZTI21krnl_TraceChannelImpl
                0x00000000        0x0 prom/krnl_trcchnl.o
 _ZZ24krnl_convertFromMsToTickmE21MAXIMUM_MILLI_SECONDS
                0x00000000        0x0 prom/krnl_trcchnl.o
 .rodata._ZZ24krnl_convertFromMsToTickmE21MAXIMUM_MILLI_SECONDS
                0x00000000        0x0 prom/krnl_trcchnl.o
 _ZTVZ4mainE15MyConfigAdapter
                0x00000000        0x0 prom/cppmain.o
 _ZTIZ4mainE15MyConfigAdapter
                0x00000000        0x0 prom/cppmain.o
 _ZTSZ4mainE15MyConfigAdapter
                0x00000000        0x0 prom/cppmain.o
 _ZTI18krnl_ConfigAdapter
                0x00000000        0x0 prom/cppmain.o
 _ZTS18krnl_ConfigAdapter
                0x00000000        0x0 prom/cppmain.o
 _ZTV18krnl_ConfigAdapter
                0x00000000        0x0 prom/cppmain.o
 _ZTVZ4mainE12MyHalAdapter
                0x00000000        0x0 prom/cppmain.o
 _ZTIZ4mainE12MyHalAdapter
                0x00000000        0x0 prom/cppmain.o
 _ZTSZ4mainE12MyHalAdapter
                0x00000000        0x0 prom/cppmain.o
 _ZTI15krnl_HalAdapter
                0x00000000        0x0 prom/cppmain.o
 _ZTS15krnl_HalAdapter
                0x00000000        0x0 prom/cppmain.o
 _ZTV15krnl_HalAdapter
                0x00000000        0x0 prom/cppmain.o
 _ZN30OnBoardEepromHardwareInterface11ReadDataBitEv
                0x00000000        0x0 prom/EEPromOnB.o
 _ZN30OnBoardEepromHardwareInterface12setDirectionEb
                0x00000000        0x0 prom/EEPromOnB.o
 _ZN30OnBoardEepromHardwareInterface7setDataEb
                0x00000000        0x0 prom/EEPromOnB.o
 _ZN30OnBoardEepromHardwareInterface8setClockEb
                0x00000000        0x0 prom/EEPromOnB.o
 _ZTV30OnBoardEepromHardwareInterface
                0x00000000        0x0 prom/EEPromOnB.o
 _ZTI30OnBoardEepromHardwareInterface
                0x00000000        0x0 prom/EEPromOnB.o
 _ZTS30OnBoardEepromHardwareInterface
                0x00000000        0x0 prom/EEPromOnB.o
 _ZTI29keyplug_EepromHardwareAdapter
                0x00000000        0x0 prom/EEPromOnB.o
 _ZTS29keyplug_EepromHardwareAdapter
                0x00000000        0x0 prom/EEPromOnB.o
 _ZTV29keyplug_EepromHardwareAdapter
                0x00000000        0x0 prom/EEPromOnB.o
 _ZTVN10__cxxabiv117__class_type_infoE
                0x00000000        0x0 D:\synergy\ccm_wa\tmbo\ME_ECS\HMI_devel-tmbo_bes_1211\HMI_devel\gnuc\bes\m68k-bes-rtems4.9\lib\mcpu32/libstdc++.a(class_type_info.o)
 _ZTSN10__cxxabiv117__class_type_infoE
                0x00000000        0x0 D:\synergy\ccm_wa\tmbo\ME_ECS\HMI_devel-tmbo_bes_1211\HMI_devel\gnuc\bes\m68k-bes-rtems4.9\lib\mcpu32/libstdc++.a(class_type_info.o)
 _ZTIN10__cxxabiv117__class_type_infoE
                0x00000000        0x0 D:\synergy\ccm_wa\tmbo\ME_ECS\HMI_devel-tmbo_bes_1211\HMI_devel\gnuc\bes\m68k-bes-rtems4.9\lib\mcpu32/libstdc++.a(class_type_info.o)
 _ZTVN10__cxxabiv120__si_class_type_infoE
                0x00000000        0x0 D:\synergy\ccm_wa\tmbo\ME_ECS\HMI_devel-tmbo_bes_1211\HMI_devel\gnuc\bes\m68k-bes-rtems4.9\lib\mcpu32/libstdc++.a(si_class_type_info.o)
 _ZTSN10__cxxabiv120__si_class_type_infoE
                0x00000000        0x0 D:\synergy\ccm_wa\tmbo\ME_ECS\HMI_devel-tmbo_bes_1211\HMI_devel\gnuc\bes\m68k-bes-rtems4.9\lib\mcpu32/libstdc++.a(si_class_type_info.o)
 _ZTIN10__cxxabiv120__si_class_type_infoE
                0x00000000        0x0 D:\synergy\ccm_wa\tmbo\ME_ECS\HMI_devel-tmbo_bes_1211\HMI_devel\gnuc\bes\m68k-bes-rtems4.9\lib\mcpu32/libstdc++.a(si_class_type_info.o)
 _ZTVSt9type_info
                0x00000000        0x0 D:\synergy\ccm_wa\tmbo\ME_ECS\HMI_devel-tmbo_bes_1211\HMI_devel\gnuc\bes\m68k-bes-rtems4.9\lib\mcpu32/libstdc++.a(tinfo.o)
 _ZTSSt9type_info
                0x00000000        0x0 D:\synergy\ccm_wa\tmbo\ME_ECS\HMI_devel-tmbo_bes_1211\HMI_devel\gnuc\bes\m68k-bes-rtems4.9\lib\mcpu32/libstdc++.a(tinfo.o)
 _ZTISt9type_info
                0x00000000        0x0 D:\synergy\ccm_wa\tmbo\ME_ECS\HMI_devel-tmbo_bes_1211\HMI_devel\gnuc\bes\m68k-bes-rtems4.9\lib\mcpu32/libstdc++.a(tinfo.o)
 _ZTVN10__cxxabiv121__vmi_class_type_infoE
                0x00000000        0x0 D:\synergy\ccm_wa\tmbo\ME_ECS\HMI_devel-tmbo_bes_1211\HMI_devel\gnuc\bes\m68k-bes-rtems4.9\lib\mcpu32/libstdc++.a(vmi_class_type_info.o)
 _ZTSN10__cxxabiv121__vmi_class_type_infoE
                0x00000000        0x0 D:\synergy\ccm_wa\tmbo\ME_ECS\HMI_devel-tmbo_bes_1211\HMI_devel\gnuc\bes\m68k-bes-rtems4.9\lib\mcpu32/libstdc++.a(vmi_class_type_info.o)
 _ZTIN10__cxxabiv121__vmi_class_type_infoE
                0x00000000        0x0 D:\synergy\ccm_wa\tmbo\ME_ECS\HMI_devel-tmbo_bes_1211\HMI_devel\gnuc\bes\m68k-bes-rtems4.9\lib\mcpu32/libstdc++.a(vmi_class_type_info.o)

Memory Configuration

Name             Origin             Length             Attributes
reserved1        0x00000000         0x000fffff         !a
application      0x00100000         0x00200000         xr
reserved2        0x00300000         0x004fffff         !a
ram              0x00800000         0x00200000         w
*default*        0x00000000         0xffffffff

Linker script and memory map

                0x00100000                _heapsize = 0x100000
                0x00100000                . = 0x100000

evtsect         0x00100000      0x400
                0x00100000                _evtsect = .
 *(evtsect)
 evtsect        0x00100000      0x400 prom/entry.o
                0x00100400                . = 0x100400

crc             0x00100400        0x8
 *(crc)
 crc            0x00100400        0x8 prom/entry.o
                0x00100408                . = 0x100408

.entrycode      0x00100408      0x1d8
 *(entrycode)
 entrycode      0x00100408      0x1d8 prom/entry.o
                0x00100408                core_entry
                0x001005ae                _exit

.init           0x001005e0        0xc
 *(.init)
 .init          0x001005e0        0x6 D:\synergy\ccm_wa\tmbo\ME_ECS\HMI_devel-tmbo_bes_1211\HMI_devel\gnuc\bes\lib\gcc\m68k-bes-rtems4.9\4.3.2\mcpu32/crtbegin.o
 .init          0x001005e6        0x6 D:\synergy\ccm_wa\tmbo\ME_ECS\HMI_devel-tmbo_bes_1211\HMI_devel\gnuc\bes\lib\gcc\m68k-bes-rtems4.9\4.3.2\mcpu32/crtend.o

.text           0x001005ec    0x1ed04
 CREATE_OBJECT_SYMBOLS
 *(.text)
 .text          0x001005ec       0x96 D:\synergy\ccm_wa\tmbo\ME_ECS\HMI_devel-tmbo_bes_1211\HMI_devel\gnuc\bes\lib\gcc\m68k-bes-rtems4.9\4.3.2\mcpu32/crtbegin.o
 *fill*         0x00100682        0x2 00
 .text          0x00100684      0x5f6 prom/testsoftfloat.o
                0x001007e8                round
                0x00100810                test_float32_1(char const*, float (*)(float))
                0x001009b6                remainderf
                0x00100684                _isnan(float)
                0x00100bc0                testfloat()
                0x001006b6                report_deviations(int)
                0x00100708                eval_float(char const*, floatif&, floatif&, int, int, int&, int&, int&, float)
 *fill*         0x00100c7a        0x2 00
 .text          0x00100c7c      0x5ec prom/remainder.o
                0x00100d56                slow_float32_rem(float, float)
 .text          0x00101268       0x88 prom/runsf.o
                0x0010126c                prt(char const*)
                0x00101268                NodeIdValid(unsigned char)
                0x00101288                krnlmain()
 .text          0x001012f0      0x1c2 prom/rtl.o
                0x001013d6                ltostr(unsigned long, char*, int)
                0x00101302                _lseek_r
                0x00101302                _stat_r
                0x00101302                _kill_r
                0x00101302                _fstat_r
                0x00101302                rtems_gxx_recursive_mutex_unlock
                0x00101302                rtems_gxx_once
                0x00101302                rtems_gxx_recursive_mutex_lock
                0x00101444                itostr(unsigned int, char*, int)
                0x00101460                uitoa(unsigned int, char*, int)
                0x00101372                memcpy
                0x00101302                _times_r
                0x001012f8                rtems_gxx_getspecific
                0x00101302                isatty
                0x001013b6                __assert_func
                0x00101302                rtems_gxx_setspecific
                0x00101302                _getpid_r
                0x00101496                itoa
                0x00101302                _read_r
                0x001012f0                _realloc_r
                0x001012f0                rtems_provides_crt0
                0x001012f0                abort
                0x00101314                _init
                0x0010147c                itoa(int, char*)
                0x00101302                _unlink_r
                0x0010130c                write
                0x001012f0                _free_r
                0x00101302                rtems_gxx_mutex_trylock
                0x00101392                __cxa_pure_virtual
                0x00101302                _fcntl_r
                0x00101302                _open_r
                0x00101302                _close_r
                0x00101316                bcopy
                0x001013f2                ultoa(unsigned long, char*, int)
                0x00101302                rtems_gxx_mutex_lock
                0x00101302                rtems_gxx_recursive_mutex_trylock
                0x00101302                rtems_gxx_key_create
                0x001012f0                _malloc_r
                0x00101302                rtems_gxx_mutex_unlock
                0x0010140e                ltoa(long, char*)
                0x00101302                _link_r
                0x001012f0                rtems_gxx_recursive_mutex_init
                0x00101312                _fini
                0x00101302                _write_r
                0x00101428                ltoa(long, char*, int)
                0x00101302                rtems_gxx_key_delete
                0x001012f0                rtems_gxx_mutex_init
                0x00101302                raise
 *fill*         0x001014b2        0x2 00
 .text          0x001014b4      0x18e prom/new.o
                0x0010157a                operator new(unsigned long)
                0x001015c6                malloc
                0x00101514                operator delete(void*)
                0x00101558                realloc
                0x00101612                _calloc_r
                0x00101536                free
 *fill*         0x00101642        0x2 00
 .text          0x00101644      0x304 prom/co_bitset.o
                0x00101644                co_BitSet256::co_BitSet256()
                0x001018d8                co_BitSet256::set()
                0x00101900                co_BitSet256::firstBitSet(unsigned char*) const
                0x00101668                co_BitSet256::co_BitSet256()
                0x001018b2                co_BitSet256::reset()
                0x0010168c                co_BitSet256::operator&=(co_BitSet256 const&)
                0x00101878                co_BitSet256::any() const
                0x001016d8                co_BitSet256::operator==(co_BitSet256 const&) const
                0x00101734                operator^(co_BitSet256 const&, co_BitSet256 const&)
                0x001017de                operator&(co_BitSet256 const&, co_BitSet256 const&)
 .text          0x00101948      0x134 prom/crc32.o
                0x00101a2c                Crc32::CalcBufferIgnoreCR(unsigned long, void const*)
                0x001019ac                Crc32::BuildCRCTable()
                0x001019a6                Crc32::Crc32()
                0x00101948                _ZN5Crc32C4Ev
                0x001019a0                Crc32::Crc32()
                0x001019ea                Crc32::CalcBuffer(unsigned long, void const*)
 .text          0x00101a7c       0x42 prom/crc.o
                0x00101a7c                crc16(unsigned short, unsigned char const*, int)
 *fill*         0x00101abe        0x2 00
 .text          0x00101ac0      0x3dc prom/flsh_bios_amd.o
                0x00101b14                flsh_AmdEraseDeviceByte
                0x00101be4                flsh_AmdProgramByte
                0x00101c8e                flsh_AmdResetWord
                0x00101b7c                flsh_AmdEraseBlockByte
                0x00101ac0                flsh_AmdResetByte
                0x00101d64                flsh_AmdEraseBlockWord
                0x00101de6                flsh_AmdProgramWord
                0x00101ce2                flsh_AmdEraseDeviceWord
 .text          0x00101e9c      0x20c prom/flsh_bios_intel.o
                0x00101f38                flsh_IntelProgramByte
                0x00101ff0                flsh_IntelEraseBlockWord
                0x00102030                flsh_IntelProgramWord
                0x00101ef8                flsh_IntelEraseBlockByte
                0x00101ef6                flsh_IntelResetByte
                0x00101fee                flsh_IntelResetWord
 .text          0x001020a8      0x298 prom/flsh_device.o
                0x00102184                _ZN10flsh_BlockC4EP11flsh_DevicePVvm
                0x001020d0                flsh_Device::blocks() const
                0x001022cc                flsh_Device::~flsh_Device()
                0x0010222a                _ZN11flsh_DeviceD4Ev
                0x00102174                flsh_Block::~flsh_Block()
                0x001022ba                flsh_Device::~flsh_Device()
                0x001021ca                flsh_Block::flsh_Block(flsh_Device*, void volatile*, unsigned long)
                0x001020da                flsh_Device::block(unsigned long) const
                0x0010211a                _ZN10flsh_BlockD4Ev
                0x001021d0                flsh_Device::addBlock(flsh_Block*)
                0x001020a8                flsh_Device::check() const
                0x00102162                flsh_Block::~flsh_Block()
                0x00102150                flsh_Block::~flsh_Block()
                0x00102110                flsh_Block::device()
                0x001022dc                _ZN11flsh_DeviceC4EN11flsh_Memory5WidthEPVvmm
                0x001021c4                flsh_Block::flsh_Block(flsh_Device*, void volatile*, unsigned long)
                0x0010233a                flsh_Device::flsh_Device(flsh_Memory::Width, void volatile*, unsigned long, unsigned long)
                0x001022a8                flsh_Device::~flsh_Device()
                0x00102334                flsh_Device::flsh_Device(flsh_Memory::Width, void volatile*, unsigned long, unsigned long)
 .text          0x00102340      0x4ce prom/flsh_device_amd.o
                0x001026f6                _ZN21flsh_DeviceAm29F800BBC4EN11flsh_Memory5WidthEPVv
                0x001023aa                flsh_BlockAm29F::program(void volatile*, void const*, unsigned long, void (*)(), int)
                0x001024e2                _ZN15flsh_BlockAm29FC4EP11flsh_DevicePVvm
                0x001026ea                flsh_DeviceAm29F::flsh_DeviceAm29F(flsh_Memory::Width, void volatile*, unsigned long, unsigned long)
                0x0010250a                flsh_BlockAm29F::flsh_BlockAm29F(flsh_Device*, void volatile*, unsigned long)
                0x00102808                flsh_DeviceAm29F800BB::flsh_DeviceAm29F800BB(flsh_Memory::Width, void volatile*)
                0x00102412                flsh_BlockAm29F::reset(void (*)(), int)
                0x00102802                flsh_DeviceAm29F800BB::flsh_DeviceAm29F800BB(flsh_Memory::Width, void volatile*)
                0x00102646                flsh_DeviceAm29F::reset(void (*)(), int)
                0x00102444                flsh_BlockAm29F::erase(void (*)(), int)
                0x001026ba                _ZN16flsh_DeviceAm29FC4EN11flsh_Memory5WidthEPVvmm
                0x00102510                flsh_BlockAm29F::flsh_BlockAm29F(flsh_Device*, void volatile*, unsigned long)
                0x00102376                flsh_DeviceAm29F800BB::~flsh_DeviceAm29F800BB()
                0x00102516                flsh_DeviceAm29F::program(void volatile*, void const*, unsigned long, void (*)(), int)
                0x00102340                _ZN21flsh_DeviceAm29F800BBD4Ev
                0x001025cc                flsh_DeviceAm29F::erase(void (*)(), int)
                0x00102388                flsh_DeviceAm29F800BB::~flsh_DeviceAm29F800BB()
                0x001026f0                flsh_DeviceAm29F::flsh_DeviceAm29F(flsh_Memory::Width, void volatile*, unsigned long, unsigned long)
                0x0010239a                flsh_DeviceAm29F800BB::~flsh_DeviceAm29F800BB()
 *fill*         0x0010280e        0x2 00
 .text          0x00102810      0x4b0 prom/flsh_device_intel.o
                0x00102b9c                flsh_DeviceI28F::flsh_DeviceI28F(flsh_Memory::Width, void volatile*, unsigned long, unsigned long)
                0x00102ba2                flsh_DeviceI28F::flsh_DeviceI28F(flsh_Memory::Width, void volatile*, unsigned long, unsigned long)
                0x00102914                flsh_BlockI28F::erase(void (*)(), int)
                0x00102810                _ZN20flsh_DeviceI28F800B5D4Ev
                0x00102846                flsh_DeviceI28F800B5::~flsh_DeviceI28F800B5()
                0x001028e2                flsh_BlockI28F::reset(void (*)(), int)
                0x0010287a                flsh_BlockI28F::program(void volatile*, void const*, unsigned long, void (*)(), int)
                0x00102858                flsh_DeviceI28F800B5::~flsh_DeviceI28F800B5()
                0x00102af8                flsh_DeviceI28F::reset(void (*)(), int)
                0x00102a9c                flsh_DeviceI28F::erase(void (*)(), int)
                0x0010286a                flsh_DeviceI28F800B5::~flsh_DeviceI28F800B5()
                0x00102ba8                _ZN20flsh_DeviceI28F800B5C4EN11flsh_Memory5WidthEPVv
                0x00102cba                flsh_DeviceI28F800B5::flsh_DeviceI28F800B5(flsh_Memory::Width, void volatile*)
                0x001029da                flsh_BlockI28F::flsh_BlockI28F(flsh_Device*, void volatile*, unsigned long)
                0x001029e0                flsh_BlockI28F::flsh_BlockI28F(flsh_Device*, void volatile*, unsigned long)
                0x00102cb4                flsh_DeviceI28F800B5::flsh_DeviceI28F800B5(flsh_Memory::Width, void volatile*)
                0x001029e6                flsh_DeviceI28F::program(void volatile*, void const*, unsigned long, void (*)(), int)
                0x001029b2                _ZN14flsh_BlockI28FC4EP11flsh_DevicePVvm
                0x00102b6c                _ZN15flsh_DeviceI28FC4EN11flsh_Memory5WidthEPVvmm
 .text          0x00102cc0      0x30a prom/flsh_device_ram.o
                0x00102d3c                flsh_DeviceRamUniform::~flsh_DeviceRamUniform()
                0x00102cc4                _ZN21flsh_DeviceRamUniformD4Ev
                0x00102d4c                flsh_DeviceRam::program(void volatile*, void const*, unsigned long, void (*)(), int)
                0x00102ebe                flsh_BlockRam::flsh_BlockRam(flsh_DeviceRam*, void volatile*, unsigned long)
                0x00102e96                _ZN13flsh_BlockRamC4EP14flsh_DeviceRamPVvm
                0x00102f24                flsh_DeviceRam::flsh_DeviceRam(flsh_Memory::Width, void volatile*, unsigned long, unsigned long, bool)
                0x00102f30                _ZN21flsh_DeviceRamUniformC4EN11flsh_Memory5WidthEmm
                0x00102eca                _ZN14flsh_DeviceRamC4EN11flsh_Memory5WidthEPVvmmb
                0x00102cc0                flsh_DeviceRam::reset(void (*)(), int)
                0x00102fc4                flsh_DeviceRamUniform::flsh_DeviceRamUniform(flsh_Memory::Width, unsigned long, unsigned long)
                0x00102e2e                flsh_BlockRam::erase(void (*)(), int)
                0x00102e62                flsh_DeviceRam::erase(void (*)(), int)
                0x00102fbe                flsh_DeviceRamUniform::flsh_DeviceRamUniform(flsh_Memory::Width, unsigned long, unsigned long)
                0x00102cc2                flsh_BlockRam::reset(void (*)(), int)
                0x00102ec4                flsh_BlockRam::flsh_BlockRam(flsh_DeviceRam*, void volatile*, unsigned long)
                0x00102f2a                flsh_DeviceRam::flsh_DeviceRam(flsh_Memory::Width, void volatile*, unsigned long, unsigned long, bool)
                0x00102d2a                flsh_DeviceRamUniform::~flsh_DeviceRamUniform()
                0x00102d18                flsh_DeviceRamUniform::~flsh_DeviceRamUniform()
                0x00102dc6                flsh_BlockRam::program(void volatile*, void const*, unsigned long, void (*)(), int)
 *fill*         0x00102fca        0x2 00
 .text          0x00102fcc      0x3b4 prom/flsh_manager.o
                0x00102fcc                flsh_Manager::init()
                0x0010304c                flsh_Manager::applicationOne()
                0x00103238                flsh_Manager::getBootDevice(bool)
                0x00103260                flsh_Manager::openBootDevice(bool)
                0x00102fce                flsh_Manager::applicationTwo()
                0x001031a8                flsh_Manager::boot()
                0x00103222                flsh_Manager::closeBootDevice()
                0x00103282                flsh_Manager::parameter()
                0x001030ca                flsh_Manager::closeBothAppDevices()
                0x0010316e                flsh_Manager::openBothAppDevices(bool)
                0x001030f4                flsh_Manager::getBothAppDevices(bool)
 .text          0x00103380       0xac prom/flsh_memory.o
                0x001033d4                flsh_Memory::width() const
                0x001033bc                flsh_Memory::~flsh_Memory()
                0x0010339e                flsh_Memory::flsh_Memory(flsh_Memory::Width, void volatile*, unsigned long)
                0x001033de                flsh_Memory::start() const
                0x001033e8                flsh_Memory::size() const
                0x001033f2                flsh_Memory::rangeCheck(void volatile*, unsigned long) const
                0x001033c8                flsh_Memory::~flsh_Memory()
                0x0010341c                flsh_Memory::~flsh_Memory()
                0x00103380                flsh_Memory::flsh_Memory(flsh_Memory::Width, void volatile*, unsigned long)
 .text          0x0010342c      0x3b8 prom/krnl_astd.o
                0x0010346c                krnl_Assertions::krnl_Assertions()
                0x0010373e                krnl_Assertions__fatalf(char const*, char const*, int, char const*, ...)
                0x00103434                _ZN15krnl_AssertionsC4Ev
                0x00103588                krnl_Assertions__log(char const*, char const*, int, char const*)
                0x0010379a                krnl_Assertions__fatal(char const*, char const*, int, char const*)
                0x0010376a                krnl_Assertions::fatalf(char const*, char const*, int, char const*, ...)
                0x0010352c                krnl_Assertions__logf(char const*, char const*, int, char const*, ...)
                0x001035aa                krnl_Assertions::vfatalf(char const*, char const*, int, char const*, void*)
                0x00103582                krnl_Assertions::log(char const*, char const*, int, char const*)
                0x00103506                krnl_Assertions__vlogf(char const*, char const*, int, char const*, void*)
                0x00103794                krnl_Assertions::fatal(char const*, char const*, int, char const*)
                0x0010342c                krnl_Assertions::instance()
                0x00103718                krnl_Assertions__vfatalf(char const*, char const*, int, char const*, void*)
                0x00103466                krnl_Assertions::krnl_Assertions()
                0x00103472                krnl_Assertions::vlogf(char const*, char const*, int, char const*, void*)
                0x001037bc                krnl_Assertions::init()
                0x00103558                krnl_Assertions::logf(char const*, char const*, int, char const*, ...)
 .text          0x001037e4      0x4fe prom/krnl_atst.o
                0x00103cb2                krnl_TestableAssertions::criticalf(char const*, char const*, int, char const*, ...)
                0x00103cdc                krnl_TestableAssertions::critical(char const*, char const*, int, char const*)
                0x001039e6                _ZN27krnl_TestableAssertionsHookC4Ev
                0x00103952                krnl_TestableAssertionsHook::~krnl_TestableAssertionsHook()
                0x00103832                krnl_TestableAssertions::krnl_TestableAssertions()
                0x00103a10                krnl_TestableAssertionsHook::krnl_TestableAssertionsHook()
                0x0010385a                krnl_TestableAssertions::krnl_TestableAssertions()
                0x00103c5c                krnl_TestableAssertions__vcriticalf(char const*, char const*, int, char const*, void*)
                0x001039e0                krnl_TestableAssertionsHook::krnl_TestableAssertionsHook(krnl_TaskId const&)
                0x00103b5e                krnl_TestableAssertions::logf(char const*, char const*, int, char const*, ...)
                0x00103962                krnl_TestableAssertions::registerHook(krnl_TestableAssertionsHook*)
                0x00103c84                krnl_TestableAssertions__criticalf(char const*, char const*, int, char const*, ...)
                0x00103860                krnl_TestableAssertions::instance()
                0x00103b88                krnl_TestableAssertions::log(char const*, char const*, int, char const*)
                0x001037e4                _ZN23krnl_TestableAssertionsC4Ev
                0x00103a36                krnl_TestableAssertionsHook::setState(bool)
                0x00103838                krnl_TestableAssertions::init()
                0x00103b08                krnl_TestableAssertions__vlogf(char const*, char const*, int, char const*, void*)
                0x001038e6                krnl_TestableAssertions::unregisterHook(krnl_TestableAssertionsHook const*)
                0x00103924                _ZN27krnl_TestableAssertionsHookD4Ev
                0x00103b8e                krnl_TestableAssertions__log(char const*, char const*, int, char const*)
                0x00103a16                krnl_TestableAssertionsHook::krnl_TestableAssertionsHook()
                0x001038be                krnl_TestableAssertions__assert(char const*, char const*, int)
                0x00103bb2                krnl_TestableAssertions::vcriticalf(char const*, char const*, int, char const*, void*)
                0x001039da                krnl_TestableAssertionsHook::krnl_TestableAssertionsHook(krnl_TaskId const&)
                0x00103b30                krnl_TestableAssertions__logf(char const*, char const*, int, char const*, ...)
                0x00103a1c                krnl_TestableAssertionsHook::reset()
                0x001039b2                _ZN27krnl_TestableAssertionsHookC4ERK11krnl_TaskId
                0x00103898                krnl_TestableAssertions__critical(char const*, char const*, int, char const*)
                0x00103a60                krnl_TestableAssertions::vlogf(char const*, char const*, int, char const*, void*)
                0x00103940                krnl_TestableAssertionsHook::~krnl_TestableAssertionsHook()
 *fill*         0x00103ce2        0x2 00
 .text          0x00103ce4      0xb7a prom/krnl_alog.o
                0x001044f0                krnl_AssertLog::restart()
                0x00103db4                krnl_AssertLog::isRunning() const
                0x0010484e                krnl_AssertLog::~krnl_AssertLog()
                0x0010468e                krnl_AssertLog::main()
                0x00104090                krnl_AssertLog::handleRestartRequest()
                0x00104192                krnl_AssertLog::instance()
                0x00103ce8                krnl_AssertLog::storage() const
                0x00103dd0                krnl_AssertLog::putBuffer(krnl_AssertLogEntry const*)
                0x00103d5a                krnl_AssertLog::waitForTaskInit()
                0x00103e58                krnl_AssertLog::tryToStoreEntry(krnl_AssertLogEntry const&)
                0x0010482c                krnl_AssertLog::~krnl_AssertLog()
                0x001041f6                krnl_AssertLogIterator::krnl_AssertLogIterator()
                0x00103cf0                _ZN22krnl_AssertLogIteratorD4Ev
                0x00103ece                krnl_AssertLog::tryToStoreSimpleAsserts()
                0x001044c8                krnl_AssertLogResetObserver::resetNotice()
                0x00103fde                krnl_AssertLog::handleTick()
                0x00104584                krnl_AssertLog::init()
                0x00103e0e                krnl_AssertLog::getBuffer()
                0x001041fc                _ZN14krnl_AssertLogC4EPKP16krnl_FlashMemoryIhEmS2_
                0x001044c2                krnl_AssertLog::krnl_AssertLog(krnl_FlashMemory<unsigned char>* const*, unsigned long, krnl_FlashMemory<unsigned char>*)
                0x00103d26                krnl_AssertLogIterator::~krnl_AssertLogIterator()
                0x0010481a                krnl_AssertLog::~krnl_AssertLog()
                0x00104788                _ZN14krnl_AssertLogD4Ev
                0x001044bc                krnl_AssertLog::krnl_AssertLog(krnl_FlashMemory<unsigned char>* const*, unsigned long, krnl_FlashMemory<unsigned char>*)
                0x001041f0                krnl_AssertLogIterator::krnl_AssertLogIterator()
                0x001041ca                _ZN22krnl_AssertLogIteratorC4Ev
                0x00103d4a                krnl_AssertLogIterator::~krnl_AssertLogIterator()
                0x00103d94                krnl_AssertLog::setIsRunning(bool)
                0x00103ce4                krnl_AssertLogResetObserver::resetQuery(char*)
                0x00103d38                krnl_AssertLogIterator::~krnl_AssertLogIterator()
 *fill*         0x0010485e        0x2 00
 .text          0x00104860       0x8e prom/krnl_aseq.o
                0x00104860                krnl_AssertSequenceNumber::init(unsigned long)
                0x001048d4                krnl_AssertSequenceNumber::get()
                0x001048c6                krnl_AssertSequenceNumber::peek()
                0x00104894                checkInterruptsDisabled()
 *fill*         0x001048ee        0x2 00
 .text          0x001048f0      0xf74 prom/krnl_asto.o
                0x00104a38                krnl_AssertLogStorageIterator::getCachedEntry() const
                0x001048f0                krnl_AssertLogStorage::resource() const
                0x001050c2                krnl_AssertLogStorageIterator::krnl_AssertLogStorageIterator(krnl_AssertLogStorage const&)
                0x00104a2e                krnl_AssertLogStorageIterator::isCachedEntryValid() const
                0x00104a16                krnl_AssertLogStorageIterator::~krnl_AssertLogStorageIterator()
                0x001057b8                krnl_AssertLogStorage::~krnl_AssertLogStorage()
                0x00105090                _ZN29krnl_AssertLogStorageIteratorC4ERK21krnl_AssertLogStorage
                0x00104e14                krnl_AssertLogStorage::getEntrySequenceNumber(unsigned long, unsigned long*) const
                0x00104a74                krnl_AssertLogStorageIterator::~krnl_AssertLogStorageIterator()
                0x00105242                krnl_AssertLogStorageIterator::findPreviousValidEntry(unsigned long, unsigned long*) const
                0x001050c8                krnl_AssertLogStorageIterator::goToNextValidEntry()
                0x001049b0                krnl_AssertLogStorage::getAbsoluteIndex(krnl_AssertLogStorage::RelativeIndex const&) const
                0x0010495c                krnl_AssertLogStorage::getState() const
                0x00104ed0                krnl_AssertLogStorage::isEntryValid(unsigned long) const
                0x00104c8a                krnl_AssertLogStorage::clear()
                0x00104966                krnl_AssertLogStorage::getRelativeIndex(unsigned long) const
                0x00104926                krnl_AssertLogStorage::getBeyondNewestEntryIndex() const
                0x001057c8                _ZN21krnl_AssertLogStorageC4EPKP16krnl_FlashMemoryIhEm
                0x00104900                krnl_AssertLogStorage::size() const
                0x00104d54                krnl_AssertLogStorage::getEntry(unsigned long, krnl_AssertLogEntry*) const
                0x00104fb8                krnl_AssertLogStorageIterator::goToOldestValidEntry()
                0x0010543e                krnl_AssertLogStorageIterator::goToNewestValidEntry()
                0x0010491c                krnl_AssertLogStorage::getOldestEntryIndex() const
                0x00104946                krnl_AssertLogStorage::getNextEntryIndex(unsigned long) const
                0x001049ea                krnl_AssertLogStorage::decreaseVectorIndex(unsigned long) const
                0x001057a6                krnl_AssertLogStorage::~krnl_AssertLogStorage()
                0x00104a22                krnl_AssertLogStorageIterator::~krnl_AssertLogStorageIterator()
                0x001050bc                krnl_AssertLogStorageIterator::krnl_AssertLogStorageIterator(krnl_AssertLogStorage const&)
                0x0010585e                krnl_AssertLogStorage::krnl_AssertLogStorage(krnl_FlashMemory<unsigned char>* const*, unsigned long)
                0x00104f62                krnl_AssertLogStorageIterator::findNextValidEntry(unsigned long, unsigned long*) const
                0x001048f6                krnl_AssertLogStorage::maxSize() const
                0x00104a84                krnl_AssertLogStorage::init()
                0x00104a00                krnl_AssertLogStorage::increaseVectorIndex(unsigned long) const
                0x001052aa                krnl_AssertLogStorageIterator::goToPreviousValidEntry()
                0x00105752                _ZN21krnl_AssertLogStorageD4Ev
                0x00104930                krnl_AssertLogStorage::getPreviousEntryIndex(unsigned long) const
                0x00105858                krnl_AssertLogStorage::krnl_AssertLogStorage(krnl_FlashMemory<unsigned char>* const*, unsigned long)
                0x0010553a                krnl_AssertLogStorage::pushBack(krnl_AssertLogEntry const&)
 .text          0x00105864      0x1b4 prom/krnl_prmtst.o
                0x00105878                krnl_PromTest::getLongFromBytes(unsigned char const*)
                0x001058b0                krnl_PromTest::putLongToBytes(unsigned long, unsigned char*)
                0x0010589e                krnl_PromTest::putShortToBytes(unsigned short, unsigned char*)
                0x00105a02                krnl_PromTest::getActiveStoredCrc()
                0x00105864                krnl_PromTest::getShortFromBytes(unsigned char const*)
                0x001059a4                krnl_PromTest::testActiveImage()
                0x00105952                krnl_PromTest::calcCrc16ForCcImage(unsigned char const*)
                0x001059d2                krnl_PromTest::testImage(unsigned char const*)
                0x001058ce                krnl_PromTest::calcCrc16(unsigned char const*, unsigned long)
 .text          0x00105a18      0x24e prom/krnl_xwdh.o
                0x00105b80                _ZN16ExtWdHandlerTaskD4Ev
                0x00105a18                _ZN16ExtWdHandlerTaskC4Ev
                0x00105abc                ExtWdHandlerTask::ExtWdHandlerTask()
                0x00105c56                ExtWdHandlerTask::~ExtWdHandlerTask()
                0x00105ac2                ExtWdHandlerTask::main()
                0x00105c34                ExtWdHandlerTask::~ExtWdHandlerTask()
                0x00105a6e                ExtWdHandlerTask::ExtWdHandlerTask()
                0x00105c22                ExtWdHandlerTask::~ExtWdHandlerTask()
                0x00105a74                krnl_ExternalWatchdogHandler::start()
 *fill*         0x00105c66        0x2 00
 .text          0x00105c68       0xbe prom/krnl_sngltn.o
                0x00105c68                krnl_GetSingletonResource()
 *fill*         0x00105d26        0x2 00
 .text          0x00105d28      0x2e2 prom/krnl_time.o
                0x00105d28                krnl_convertTime(krnl_timeval const&, krnl_tm*)
                0x00105f36                krnl_convertTime(krnl_tm const&, krnl_timeval*)
 *fill*         0x0010600a        0x2 00
 .text          0x0010600c       0x12 prom/krnl_epilog.o
                0x0010600c                krnl_epilog::SetFatalAssertFunction(void (*)())
                0x00106016                krnl_epilog::GetFatalAssertFunction()
 *fill*         0x0010601e        0x2 00
 .text          0x00106020        0x0 prom/krnl_clkfrq.o
 .text          0x00106020      0x134 prom/krnl_evt.o
                0x00106064                _ZN25krnl_ExceptionVectorTableC4Ev
                0x00106100                krnl_ExceptionVectorTable::init()
                0x00106032                krnl_ExceptionVectorTable::setVector(unsigned char, void (*)())
                0x00106098                krnl_ExceptionVectorTable::krnl_ExceptionVectorTable()
                0x00106020                krnl_ExceptionVectorTable::instance()
                0x00106028                krnl_ExceptionVectorTable::setDefaultVector(void (*)())
                0x001060cc                krnl_ExceptionVectorTable::krnl_ExceptionVectorTable()
 .text          0x00106154       0x1a prom/krnl_evtasm.o
                0x00106154                krnl_defaultExceptionHook
 *fill*         0x0010616e        0x2 00
 .text          0x00106170       0x10 prom/krnl_intwd.o
                0x00106170                krnl_InternalWatchdog::poke()
 .text          0x00106180       0xe2 prom/krnl_pit.o
                0x001061e6                krnl_Pit::~krnl_Pit()
                0x001061a6                krnl_Pit::stop()
                0x0010618a                krnl_Pit::start()
                0x001061ce                krnl_Pit::krnl_Pit()
                0x001061e8                krnl_Pit::~krnl_Pit()
                0x00106180                krnl_Pit::instance()
                0x00106228                krnl_Pit::init()
                0x001061ea                krnl_Pit::setVector(void (*)())
                0x001061b6                krnl_Pit::krnl_Pit()
 *fill*         0x00106262        0x2 00
 .text          0x00106264      0x186 prom/krnl_sci.o
                0x001063c4                krnl_Sci::transmitString(char const*)
                0x00106302                krnl_Sci::setVector(void (*)())
                0x00106346                krnl_Sci::transmitChar(char)
                0x00106264                krnl_Sci::init(int)
                0x001062ca                krnl_Sci::receiveChar(char*)
                0x0010628c                krnl_Sci::receiveChar()
 *fill*         0x001063ea        0x2 00
 .text          0x001063ec      0x60c prom/krnl_xcptin.o
                0x00106464                krnl_createExceptionInfo()
                0x001063ec                krnl_storeExceptionStackFrame_c
 .text          0x001069f8       0x2c prom/cbw_extwd.o
                0x001069fe                cbw_ExternalWatchdog::isEnabled()
                0x00106a16                cbw_ExternalWatchdog::enable()
                0x001069f8                cbw_ExternalWatchdog__terminalDisable
                0x00106a04                cbw_ExternalWatchdog::poke()
                0x00106a0a                cbw_ExternalWatchdog::disable()
 .text          0x00106a24      0x102 prom/cbw_inl.o
                0x00106ac4                cbw_InputLatch::isComCpuControlledFromCpu32()
                0x00106aac                cbw_InputLatch::isBlueDipSwitchOff()
                0x00106ade                cbw_InputLatch::getOnboardRomData()
                0x00106a2e                cbw_InputLatch::isExtWdEnabled()
                0x00106b10                cbw_InputLatch::FPGAversion()
                0x00106a62                cbw_InputLatch::isBatteryOk()
                0x00106b1a                cbw_InputLatch::gpInputSignalState()
                0x00106a48                cbw_InputLatch::getOffboardRomData()
                0x00106af8                cbw_InputLatch::isBootPromProtected()
                0x00106a94                cbw_InputLatch::isGreenDipSwitchOff()
                0x00106a7c                cbw_InputLatch::isYellowDipSwitchOff()
 *fill*         0x00106b26        0x2 00
 .text          0x00106b28       0xaa prom/cbw_outl.o
                0x00106b78                cbw_OutputLatch<unsigned short>::set(unsigned short, bool)
                0x00106b28                cbw_OutputLatch<unsigned char>::set(unsigned char, bool)
 *fill*         0x00106bd2        0x2 00
 .text          0x00106bd4       0xb0 prom/cbw_outl3.o
                0x00106c1e                cbw_OutputLatch3__terminalDisableExternalWatchdog
                0x00106be4                cbw_OutputLatch3::init()
                0x00106c5e                cbw_OutputLatch3::setExtWdState(bool)
                0x00106bd4                cbw_OutputLatch3::preInitDisableExtWd()
                0x00106c30                cbw_OutputLatch3::pokeExtWd()
 .text          0x00106c84       0x10 prom/krnl_flmem.o
                0x00106c84                krnl_flashDelay()
 .text          0x00106c94      0x226 prom/krnl_flpar.o
                0x00106d4a                krnl_ParameterFlash::~krnl_ParameterFlash()
                0x00106cca                krnl_ParameterFlash::getSimpleAssertStorageBlockPtr() const
                0x00106d86                krnl_ParameterFlash::instance()
                0x00106e88                krnl_ParameterFlash::krnl_ParameterFlash()
                0x00106d4c                krnl_ParameterFlash::~krnl_ParameterFlash()
                0x00106dbe                _ZN19krnl_ParameterFlashC4Ev
                0x00106e82                krnl_ParameterFlash::krnl_ParameterFlash()
                0x00106d2e                krnl_ParameterFlash::getParameterBlock1Ptr() const
                0x00106d12                krnl_ParameterFlash::getParameterBlock0Ptr() const
                0x00106ce6                krnl_ParameterFlash::getAssertLogBlockPtr(unsigned long) const
                0x00106c96                krnl_ParameterFlash::getResetCommandBlockPtr() const
                0x00106e8e                krnl_ParameterFlash::init()
                0x00106d4e                krnl_ParameterFlash::getDevice() const
                0x00106cae                krnl_ParameterFlash::getNodeModeBlockPtr() const
 *fill*         0x00106eba        0x2 00
 .text          0x00106ebc      0xb2c prom/krnl_flstr.o
                0x0010740c                krnl_FlashOutputStream::close()
                0x00107248                krnl_FlashOutputStream::write(char const*, unsigned long)
                0x00106ee8                krnl_IosBase::~krnl_IosBase()
                0x0010790a                _ZN21krnl_FlashInputStreamC4EP16krnl_FlashMemoryIhE
                0x001076ac                krnl_IosBase::~krnl_IosBase()
                0x00106f1c                krnl_IosBase::eof() const
                0x001075c2                krnl_FlashInputStream::close()
                0x00106f4a                krnl_FlashOutputStream::defEID(char*)
                0x00107124                krnl_FlashInputStream::read(char*, unsigned long)
                0x00106ecc                krnl_IosBase::krnl_IosBase()
                0x00106f02                krnl_IosBase::clear(int)
                0x00106fe8                krnl_FlashInputStream::getRID() const
                0x00106ef4                krnl_IosBase::setState(int)
                0x001077b0                krnl_FlashInputStream::hasValidData(krnl_FlashMemory<unsigned char> const*)
                0x001076f8                krnl_FlashOutputStream::~krnl_FlashOutputStream()
                0x0010777c                krnl_FlashInputStream::~krnl_FlashInputStream()
                0x001079e2                krnl_FlashInputStream::krnl_FlashInputStream(krnl_FlashMemory<unsigned char>*)
                0x00106edc                krnl_IosBase::~krnl_IosBase()
                0x0010772c                _ZN21krnl_FlashInputStreamD4Ev
                0x0010778e                krnl_FlashInputStream::~krnl_FlashInputStream()
                0x001070ae                krnl_FlashInputStream::getTimeStamp() const
                0x00106f56                krnl_FlashOutputStream::defRID(char*)
                0x00106f2a                krnl_IosBase::fail() const
                0x00106f62                krnl_FlashInputStream::getEID() const
                0x0010771c                krnl_FlashOutputStream::~krnl_FlashOutputStream()
                0x00107904                krnl_FlashOutputStream::krnl_FlashOutputStream(krnl_FlashMemory<unsigned char>*)
                0x001077d6                _ZN22krnl_FlashOutputStreamC4EP16krnl_FlashMemoryIhE
                0x00106f3a                krnl_IosBase::bad() const
                0x001077a0                krnl_FlashInputStream::~krnl_FlashInputStream()
                0x00106f0e                krnl_IosBase::good() const
                0x001079dc                krnl_FlashInputStream::krnl_FlashInputStream(krnl_FlashMemory<unsigned char>*)
                0x001078fe                krnl_FlashOutputStream::krnl_FlashOutputStream(krnl_FlashMemory<unsigned char>*)
                0x00106ebc                krnl_IosBase::krnl_IosBase()
                0x0010770a                krnl_FlashOutputStream::~krnl_FlashOutputStream()
                0x001076bc                _ZN22krnl_FlashOutputStreamD4Ev
                0x0010734c                krnl_FlashInputStream::verifyStreamData()
 .text          0x001079e8      0x46e prom/krnl_stores.o
                0x00107d3c                krnl_StorageResource::Locker::Locker(krnl_StorageResource&, bool)
                0x00107e0e                _ZN20krnl_StorageResourceC4EPKc
                0x00107d88                krnl_StorageResource::close()
                0x001079f4                krnl_StorageResource::openWrite(krnl_StorageResource::WaitMode, unsigned long)
                0x00107e4a                krnl_StorageResource::krnl_StorageResource(char const*)
                0x00107cc8                krnl_StorageResource::openWait(bool)
                0x00107e00                krnl_StorageResource::Locker::~Locker()
                0x00107d5a                krnl_StorageResource::openTimeout(bool, unsigned long)
                0x001079e8                krnl_StorageResource::getWriteOwnerTaskId() const
                0x00107b90                krnl_StorageResource::openRead(krnl_StorageResource::WaitMode, unsigned long)
                0x00107d1e                krnl_StorageResource::Locker::Locker(krnl_StorageResource&, bool)
                0x00107e50                krnl_StorageResource::krnl_StorageResource(char const*)
                0x00107df2                krnl_StorageResource::Locker::~Locker()
 *fill*         0x00107e56        0x2 00
 .text          0x00107e58      0x5fc prom/krnl_rtc.o
                0x00107f66                krnl_RealTimeClock::getTime(void (*)())
                0x00107e98                krnl_RealTimeClockLock::krnl_RealTimeClockLock(void (*)())
                0x00107eae                krnl_RealTimeClockLock::~krnl_RealTimeClockLock()
                0x00107e9e                krnl_RealTimeClockLock::~krnl_RealTimeClockLock()
                0x00107e58                _ZN22krnl_RealTimeClockLockC4EPFvvE
                0x00107ebe                krnl_RealTimeClock::reset()
                0x00107e92                krnl_RealTimeClockLock::krnl_RealTimeClockLock(void (*)())
                0x00107f3c                krnl_RealTimeClock::init()
                0x00108074                krnl_RealTimeClock::setTime(krnl_tm const&, void (*)())
 .text          0x00108454      0x218 prom/krnl_nclk_r.o
                0x001085d6                krnl_NodeClock::init()
                0x00108486                krnl_NodeClock::krnl_NodeClock()
                0x001085ac                krnl_NodeClock::set(krnl_tm const&)
                0x00108492                krnl_NodeClock::get(krnl_timeval*) const
                0x00108454                _ZN14krnl_NodeClockC4Ev
                0x00108580                krnl_NodeClock::set(krnl_timeval const&)
                0x00108564                krnl_NodeClock::isrGet(krnl_timeval*) const
                0x001084ae                krnl_NodeClock::get(krnl_tm*) const
                0x0010848c                krnl_NodeClock::krnl_NodeClock()
                0x0010852c                krnl_NodeClock::instance()
                0x001084d8                krnl_NodeClock::backup() const
 .text          0x0010866c      0x14c prom/krnl_ntime_r.o
                0x00108732                krnl_NodeTime::get() const
                0x00108704                krnl_NodeTime::krnl_NodeTime()
                0x0010870a                krnl_NodeTime::init()
                0x0010872c                krnl_NodeTime::krnl_NodeTime()
                0x00108756                krnl_NodeTime::set(krnl_timeval const&)
                0x0010866c                krnl_NodeTime::tick()
                0x001086b2                krnl_NodeTime::isrGet() const
                0x001086be                _ZN13krnl_NodeTimeC4Ev
                0x00108780                krnl_NodeTime::instance()
 .text          0x001087b8      0xbec prom/krnl_crttsk.o
                0x00108e44                krnl_TimeCriticalTaskBase::krnl_TimeCriticalTaskBase(unsigned long, char const*)
                0x00108848                krnl_TimeCriticalTaskMonitor::~krnl_TimeCriticalTaskMonitor()
                0x00108e3e                krnl_TimeCriticalTaskBase::krnl_TimeCriticalTaskBase(unsigned long, char const*)
                0x0010909a                non-virtual thunk to krnl_TimeCriticalTask::~krnl_TimeCriticalTask()
                0x001090e2                krnl_TimeCriticalTaskBase::startTaskWatchdog(krnl_TaskId const&)
                0x00108826                krnl_TimeCriticalTaskMonitor::~krnl_TimeCriticalTaskMonitor()
                0x00108814                krnl_TimeCriticalTaskMonitor::~krnl_TimeCriticalTaskMonitor()
                0x00108e90                krnl_TimeCriticalTask::krnl_TimeCriticalTask(int, unsigned long, char const*, unsigned long)
                0x00108e96                krnl_TimeCriticalTask::krnl_TimeCriticalTask(int, unsigned long, char const*, unsigned long)
                0x00108924                krnl_TimeCriticalTaskMonitor::krnl_TimeCriticalTaskMonitor()
                0x001090b6                non-virtual thunk to krnl_TimeCriticalTask::~krnl_TimeCriticalTask()
                0x001091e0                krnl_TimeCriticalTask::beforeMain()
                0x00108fa4                _ZN25krnl_TimeCriticalTaskBaseD4Ev
                0x00108d8c                _ZN25krnl_TimeCriticalTaskBaseC4EmPKc
                0x00108978                krnl_TimeCriticalTaskMonitor::instance()
                0x00108858                krnl_TimeCriticalTaskMonitor::registerTimeoutFunction(void (*)(krnl_TaskId const&, unsigned long))
                0x00109208                krnl_TimeCriticalTaskBase::pokeTaskWatchdog(unsigned long)
                0x00108c12                krnl_TimeCriticalTaskMonitor::unregisterObject(krnl_TimeCriticalTaskBase const*)
                0x001090d2                krnl_TimeCriticalTask::~krnl_TimeCriticalTask()
                0x0010888e                _ZN28krnl_TimeCriticalTaskMonitorC4Ev
                0x00109042                krnl_TimeCriticalTaskBase::~krnl_TimeCriticalTaskBase()
                0x00108ba8                krnl_TimeCriticalTaskMonitor::disable()
                0x0010892a                krnl_TimeCriticalTaskMonitor::krnl_TimeCriticalTaskMonitor()
                0x00108cd0                krnl_TimeCriticalTaskMonitor::registerObject(krnl_TimeCriticalTaskBase*)
                0x001090a4                krnl_TimeCriticalTask::~krnl_TimeCriticalTask()
                0x00108bdc                krnl_TimeCriticalTaskMonitor::enable()
                0x00109030                krnl_TimeCriticalTaskBase::~krnl_TimeCriticalTaskBase()
                0x00109052                _ZN21krnl_TimeCriticalTaskD4Ev
                0x001090c0                krnl_TimeCriticalTask::~krnl_TimeCriticalTask()
                0x001087b8                _ZN28krnl_TimeCriticalTaskMonitorD4Ev
                0x00108930                krnl_TimeCriticalTaskMonitor::init()
                0x001089b0                krnl_TimeCriticalTaskMonitor::main()
                0x00108e9c                krnl_TimeCriticalTaskBase::pokeTaskWatchdog()
                0x00108e4a                _ZN21krnl_TimeCriticalTaskC4EimPKcm
                0x0010901e                krnl_TimeCriticalTaskBase::~krnl_TimeCriticalTaskBase()
 .text          0x001093a4       0x5a prom/krnl_otmr.o
                0x001093a4                krnl_OsTimer::Timeout::timeLeft()
 *fill*         0x001093fe        0x2 00
 .text          0x00109400       0xae prom/krnl_stask.o
                0x001094a8                krnl_SimpleTask::krnl_SimpleTask(int, unsigned long, char const*, void (*)())
                0x00109440                krnl_SimpleTask::~krnl_SimpleTask()
                0x00109452                krnl_SimpleTask::~krnl_SimpleTask()
                0x00109474                _ZN15krnl_SimpleTaskC4EimPKcPFvvE
                0x0010940a                _ZN15krnl_SimpleTaskD4Ev
                0x00109464                krnl_SimpleTask::~krnl_SimpleTask()
                0x001094a2                krnl_SimpleTask::krnl_SimpleTask(int, unsigned long, char const*, void (*)())
                0x00109400                krnl_SimpleTask::main()
 *fill*         0x001094ae        0x2 00
 .text          0x001094b0       0xc2 prom/krnl_crtreg_r.o
                0x001094d4                krnl_CriticalRegion::initAndDisable()
                0x001094ec                krnl_CriticalRegion::readCount()
                0x0010951a                krnl_CriticalRegion::unlock()
                0x0010950a                krnl_ISRCriticalRegion::unlock(unsigned short)
                0x001094e4                krnl_CriticalRegion::enable()
                0x001094b0                krnl_CriticalRegion::lock()
                0x001094f4                krnl_ISRCriticalRegion::lock()
 *fill*         0x00109572        0x2 00
 .text          0x00109574       0x28 prom/krnl_curtask_r.o
                0x00109574                krnl_CurrentTask::getTaskName()
                0x0010958a                krnl_CurrentTask::getTaskId()
 .text          0x0010959c        0xc prom/krnl_otmr_r.o
                0x0010959c                krnl_OsTimer::resolution()
                0x001095a0                krnl_OsTimer::get()
 .text          0x001095a8      0x4ba prom/krnl_queue_r.o
                0x001096e2                _ZN14krnl_RtxcQueueD4Ev
                0x001099ac                krnl_RtxcQueue::enqueueTimeout(char const*, unsigned long)
                0x001095ba                krnl_RtxcQueue::purge()
                0x00109694                krnl_RtxcQueue::dequeue(char*)
                0x00109764                krnl_RtxcQueue::~krnl_RtxcQueue()
                0x001099a6                krnl_RtxcQueue::krnl_RtxcQueue(unsigned long, unsigned long, char const*)
                0x00109752                krnl_RtxcQueue::~krnl_RtxcQueue()
                0x00109776                krnl_RtxcQueue::~krnl_RtxcQueue()
                0x001095a8                krnl_RtxcQueue::getNoEntries() const
                0x001099a0                krnl_RtxcQueue::krnl_RtxcQueue(unsigned long, unsigned long, char const*)
                0x00109786                _ZN14krnl_RtxcQueueC4EmmPKc
                0x001095cc                krnl_RtxcQueue::dequeueWait(char*)
                0x001095de                krnl_RtxcQueue::dequeueTimeout(char*, unsigned long)
                0x001096c4                krnl_RtxcQueue::enqueue(char const*)
                0x001096b2                krnl_RtxcQueue::enqueueWait(char const*)
 *fill*         0x00109a62        0x2 00
 .text          0x00109a64      0x1ae prom/krnl_res_r.o
                0x00109a64                _ZN13krnl_ResourceD4Ev
                0x00109c06                krnl_Resource::krnl_Resource(char const*)
                0x00109c0c                krnl_Resource::krnl_Resource(char const*)
                0x00109ac2                krnl_Resource::~krnl_Resource()
                0x00109ab0                krnl_Resource::~krnl_Resource()
                0x00109ad4                krnl_Resource::~krnl_Resource()
                0x00109ae4                _ZN13krnl_ResourceC4EPKc
 *fill*         0x00109c12        0x2 00
 .text          0x00109c14      0x1ac prom/krnl_sema_r.o
                0x00109db4                krnl_Semaphore::krnl_Semaphore(char const*)
                0x00109c68                krnl_Semaphore::~krnl_Semaphore()
                0x00109c14                _ZN14krnl_SemaphoreD4Ev
                0x00109c7a                krnl_Semaphore::~krnl_Semaphore()
                0x00109c9c                _ZN14krnl_SemaphoreC4EPKc
                0x00109c8c                krnl_Semaphore::~krnl_Semaphore()
                0x00109dba                krnl_Semaphore::krnl_Semaphore(char const*)
 .text          0x00109dc0      0x5ee prom/krnl_task_r.o
                0x0010a07c                krnl_Task::unblock()
                0x0010a268                krnl_Task::~krnl_Task()
                0x0010a1b0                krnl_Task::blockAllTasksExceptCurrent()
                0x00109dc2                krnl_Task::entryFunction()
                0x0010a1fa                _ZN9krnl_TaskD4Ev
                0x0010a31e                _ZN9krnl_TaskC4EimPKc
                0x0010a092                krnl_Task::unblockTaskByName(char const*)
                0x0010a28a                _ZN9krnl_TaskC4EiimPKc
                0x0010a3a2                krnl_Task::krnl_Task(int, unsigned long, char const*)
                0x0010a3a8                krnl_Task::krnl_Task(int, unsigned long, char const*)
                0x0010a312                krnl_Task::krnl_Task(int, int, unsigned long, char const*)
                0x00109dc0                krnl_Task::beforeMain()
                0x0010a318                krnl_Task::krnl_Task(int, int, unsigned long, char const*)
                0x0010a02a                krnl_Task::isActive() const
                0x0010a27a                krnl_Task::~krnl_Task()
                0x0010a256                krnl_Task::~krnl_Task()
                0x0010a1ce                krnl_Task::start()
                0x0010a0fe                krnl_Task::blockTaskByName(char const*)
                0x0010a05e                krnl_Task::unblockAllTasks()
                0x00109dfa                krnl_Task::initTask(short, char*, unsigned long, char const*)
 *fill*         0x0010a3ae        0x2 00
 .text          0x0010a3b0       0x34 prom/krnl_taskid_r.o
                0x0010a3ba                krnl_TaskId::dumpToString(char*) const
 .text          0x0010a3e4      0x1a0 prom/krnl_wait_r.o
                0x0010a52a                krnl_WaitList::~krnl_WaitList()
                0x0010a3e4                krnl_WaitableObject::krnl_WaitableObject()
                0x0010a3f4                krnl_WaitableObject::krnl_WaitableObject()
                0x0010a568                krnl_WaitList::krnl_WaitList(unsigned long)
                0x0010a540                _ZN13krnl_WaitListC4Em
                0x0010a410                krnl_WaitableObject::~krnl_WaitableObject()
                0x0010a484                krnl_WaitList::registerObject(krnl_WaitableObject*)
                0x0010a56e                krnl_WaitList::krnl_WaitList(unsigned long)
                0x0010a42c                krnl_WaitList::reset()
                0x0010a41c                krnl_WaitableObject::set(krnl_WaitableObject*)
                0x0010a404                krnl_WaitableObject::~krnl_WaitableObject()
                0x0010a514                krnl_WaitList::~krnl_WaitList()
                0x0010a444                krnl_WaitList::wait() const
                0x0010a574                krnl_WaitableObject::~krnl_WaitableObject()
 .text          0x0010a584      0x2c0 prom/krnl_reset.o
                0x0010a808                krnl_ProgrammedResetObserver::registerSelf()
                0x0010a76c                krnl_ProgrammedResetObserver::unregisterSelf()
                0x0010a584                krnl_ProgrammedReset::doRawReset()
                0x0010a654                krnl_ProgrammedReset::doReset()
                0x0010a6a0                krnl_ProgrammedReset::resetQuery(char*)
 .text          0x0010a844        0x0 prom/cclock.o
 .text          0x0010a844        0x0 prom/cmbox.o
 .text          0x0010a844        0x0 prom/cpart.o
 .text          0x0010a844        0x0 prom/cqueue.o
 .text          0x0010a844        0x0 prom/cres.o
 .text          0x0010a844        0x0 prom/csema.o
 .text          0x0010a844        0x0 prom/ctask.o
 .text          0x0010a844      0x792 prom/format.o
                0x0010a844                formatv(char*, char*, void*)
 *fill*         0x0010afd6        0x2 00
 .text          0x0010afd8     0x261c prom/rtxcbug.o
                0x0010afd8                sgnlcbug()
                0x0010d3da                rtxcbug()
                0x0010b110                taskbyname(char*)
 .text          0x0010d5f4     0x353e prom/rtxc.o
                0x0010d920                KS_ISRtick()
                0x0010d8cc                KS_ISRsignalm(short const*)
                0x0010d82c                KS_ISRalloc(short)
                0x0010d9b6                stkinit(short*, unsigned long)
                0x0010d620                mboxinit()
                0x0010d7b4                semainit()
                0x0010d88e                KS_ISRsignal(short)
                0x0010d9d2                taskinit()
                0x0010d7f2                clockinit()
                0x0010e230                rtxc
                0x0010d5f4                resinit()
                0x0010d766                queueinit()
                0x0010d622                partinit()
                0x0010e184                KS_ISRexit(_frame*, short)
 *fill*         0x00110b32        0x2 00
 .text          0x00110b34     0x20d8 prom/rtxcapi.o
                0x00112b48                KS_deftask(short, short, char*, unsigned long, void (*)())
                0x00111934                KS_deftask_arg(short, void*)
                0x001122ec                KS_pend(short)
                0x00110b3c                KS_defslice(short, short)
                0x00112264                KS_receive(short, short)
                0x001121ee                KS_resume(short)
                0x00112964                KS_alloc_timer()
                0x00110bfe                KS_inqslice(short)
                0x00111e54                KS_unblock(short, short)
                0x00111620                KS_lockw(short)
                0x00111390                KS_inqtime()
                0x001127d6                KS_dequeue(short, void*)
                0x00110bca                KS_inqqueue(short)
                0x00110f14                KS_pendm(short const*)
                0x001123e8                KS_free_timer(_clkblk*)
                0x00111a2e                KS_defres(short, unsigned char)
                0x00111518                KS_receivew(short, short)
                0x00111cc8                KS_wait(short)
                0x00111f46                KS_suspend(short)
                0x001120ce                KS_signal(short)
                0x00110b80                KS_inqmap(short)
                0x00111d4e                KS_user(int (*)(void*), void*)
                0x00110be4                KS_inqsema(short)
                0x001124de                KS_defpart(short, void*, unsigned long, unsigned long)
                0x00112150                KS_ack(_rtxcmsg*)
                0x001128e8                KS_defpriority(short, short)
                0x001115aa                KS_purgequeue(short)
                0x00110d2e                KS_sendt(short, _rtxcmsg*, short, short, short)
                0x001118b8                KS_defmboxsema(short, short)
                0x00112162                KS_send(short, _rtxcmsg*, short, short)
                0x00111836                KS_defqsema(short, short, unsigned char)
                0x00112acc                KS_block(short, short)
                0x00112748                KS_enqueue(short, void*)
                0x001117b0                KS_dequeuew(short, void*)
                0x0011115c                KS_defqueue(short, unsigned long, int, void*, int)
                0x0011204c                KS_stop_timer(_clkblk*)
                0x001116ac                KS_enqueuew(short, void*)
                0x00111ab6                KS_inqres(short)
                0x00110c28                KS_waitt(short, short)
                0x00111732                KS_elapse(short*)
                0x00110cb8                KS_signalm(short const*)
                0x00111bc2                KS_allocw(short)
                0x00110b34                KS_version()
                0x0011129c                KS_inqtimer(_clkblk*)
                0x00110e64                KS_receivet(short, short, short, unsigned char*)
                0x001111f6                KS_alloct(short, short, unsigned char*)
                0x00112864                KS_delay(short, short)
                0x001110be                KS_dequeuet(short, void*, short)
                0x00111020                KS_enqueuet(short, void*, short)
                0x00110f8a                KS_lockt(short, short)
                0x00111fbc                KS_start_timer(_clkblk*, short, short, short)
                0x00111b38                KS_create_part(void*, unsigned long, unsigned long)
                0x00111408                KS_waitm(short const*)
                0x001129dc                KS_alloc(short)
                0x00110ba2                KS_inqpriority(short)
                0x001119b0                KS_inqtask_arg(short)
                0x0011131a                KS_deftime(long)
                0x00110dd6                KS_restart_timer(_clkblk*, short, short)
                0x0011265a                KS_alloc_task()
                0x00111ed0                KS_terminate(short)
                0x00112362                KS_lock(short)
                0x00112566                KS_alloc_part()
                0x001126d2                KS_execute(short)
                0x00111dd2                KS_unlock(short)
                0x00112460                KS_free_part(short)
                0x00112a5e                KS_nop()
                0x00111486                KS_sendw(short, _rtxcmsg*, short, short)
                0x001125de                KS_free(short, void*)
                0x00111c4a                KS_yield()
                0x00110bf2                KS_inqtask()
 .text          0x00112c0c       0x40 prom/rtxcinit.o
                0x00112c0e                rtxcinit()
                0x00112c0c                rtxcstop()
 .text          0x00112c4c       0x26 prom/setvect.o
                0x00112c5e                setvect(int, void (*)())
                0x00112c4c                getvect(int)
 *fill*         0x00112c72        0x2 00
 .text          0x00112c74       0x90 prom/rtxcasm.o
                0x00112cc4                __ks
                0x00112cf4                getintlvl
                0x00112cc2                isvcnop
                0x00112ccc                setintlvl
                0x00112c74                isvcrtx
                0x00112cfe                getVBR
 .text          0x00112d04      0x1a6 prom/krnl_adef.o
                0x00112e38                krnl_AssertLogEntry::getUserText() const
                0x00112d04                krnl_AssertLogEntry::setSequenceNumber(unsigned long)
                0x00112dfa                krnl_AssertLogEntry::getFilename() const
                0x00112d40                krnl_AssertLogEntry::setDataExceptUserText(unsigned long, krnl_timeval const&, krnl_AssertLogEntry::Severity, char const*, char const*, int, char const*)
                0x00112e5a                krnl_AssertLogEntry::vset(unsigned long, krnl_timeval const&, krnl_AssertLogEntry::Severity, char const*, char const*, int, char const*, char const*, void*)
                0x00112e16                krnl_AssertLogEntry::getTaskName() const
                0x00112d0e                krnl_AssertLogEntry::getSequenceNumber() const
                0x00112d24                krnl_AssertLogEntry::getSeverity() const
                0x00112d36                krnl_AssertLogEntry::getLineNumber() const
                0x00112d2e                krnl_AssertLogEntry::getExpression() const
                0x00112db6                krnl_AssertLogEntry::set(unsigned long, krnl_timeval const&, krnl_AssertLogEntry::Severity, char const*, char const*, int, char const*, char const*)
                0x00112d16                krnl_AssertLogEntry::getTime() const
 *fill*         0x00112eaa        0x2 00
 .text          0x00112eac      0x100 prom/krnl_sastd.o
                0x00112eac                krnl_SimpleAssertions__fatal
 .text          0x00112fac      0x1d2 prom/krnl_sasto.o
                0x0011300e                krnl_SimpleAssertStorage::hasValidData(unsigned long)
                0x00113058                krnl_SimpleAssertStorage::clear()
                0x0011316e                krnl_SimpleAssertStorage__addEntry
                0x0011307e                krnl_SimpleAssertStorage::add(krnl_AssertLogEntry const&)
                0x00112fac                krnl_SimpleAssertStorage::get(unsigned long, krnl_AssertLogEntry*)
 *fill*         0x0011317e        0x2 00
 .text          0x00113180       0x5e prom/krnl_satst.o
                0x001131ba                krnl_InitialSimpleTestableAssertionsImpl::critical(char const*, char const*, int, char const*)
                0x00113180                krnl_SimpleTestableAssertions::critical(char const*, char const*, int, char const*)
                0x001131a4                krnl_SimpleTestableAssertions::setImpl(krnl_SimpleTestableAssertionsImpl const*)
 *fill*         0x001131de        0x2 00
 .text          0x001131e0      0x45e prom/krnl_scires.o
                0x001135b8                _ZN17krnl_SciResourcesC4Ev
                0x00113638                krnl_SciResource::krnl_SciResource()
                0x0011357c                _ZN16krnl_SciResourceC4Ev
                0x00113226                krnl_SciResourceUser::~krnl_SciResourceUser()
                0x001133c0                krnl_SciResource::lock(krnl_SciResourceUser*)
                0x00113236                krnl_SciResources::output()
                0x001131f2                krnl_SciResourceUser::krnl_SciResourceUser(unsigned char)
                0x001132a2                krnl_SciResource::unlock()
                0x00113372                krnl_SciResource::cancelLock(krnl_SciResourceUser const*)
                0x001134c8                _ZN16krnl_SciResourceD4Ev
                0x001135f4                krnl_SciResources::krnl_SciResources()
                0x0011326e                krnl_SciResources::input()
                0x0011355c                krnl_SciResources::~krnl_SciResources()
                0x00113632                krnl_SciResources::krnl_SciResources()
                0x0011353a                krnl_SciResources::~krnl_SciResources()
                0x0011356c                krnl_SciResource::~krnl_SciResource()
                0x001134ea                krnl_SciResource::~krnl_SciResource()
                0x0011321c                krnl_SciResourceUser::priority() const
                0x001135b2                krnl_SciResource::krnl_SciResource()
                0x001134fc                _ZN17krnl_SciResourcesD4Ev
                0x001131e0                krnl_SciResourceUser::krnl_SciResourceUser(unsigned char)
                0x00113204                krnl_SciResourceUser::~krnl_SciResourceUser()
                0x00113210                krnl_SciResourceUser::~krnl_SciResourceUser()
                0x001135fa                krnl_SciResources::Instance()
 *fill*         0x0011363e        0x2 00
 .text          0x00113640      0x808 prom/krnl_scidrv_m.o
                0x00113640                krnl_SciDriver::interruptHandler()
                0x00113b78                krnl_SciDriver::instance()
                0x00113c88                krnl_SciDriver::restart()
                0x00113a04                krnl_SciDriver::krnl_SciDriver(int)
                0x00113ddc                krnl_SciDriver::purgeInputData()
                0x00113d2e                krnl_SciDriver::xon()
                0x001138d6                _ZN14krnl_SciDriverC4Ei
                0x0011380a                krnl_SciDriver::getStatistics(krnl_SciDriver::Statistics*) const
                0x00113bb0                krnl_SciDriver::start()
                0x00113834                krnl_SciDriver::resetStatistics()
                0x00113c3c                krnl_SciDriver::init(int)
                0x001139fe                krnl_SciDriver::krnl_SciDriver(int)
                0x00113a0a                krnl_SciDriver::getNextChar(char*, unsigned long)
                0x00113850                krnl_SciDriver::getNextChar(char*)
                0x00113d7e                krnl_SciDriver::setFlowControl(bool)
 .text          0x00113e48       0x8c prom/krnl_sciisr_m.o
                0x00113eb4                krnl_SciIsr
                0x00113e48                krnl_qsm_int_call
 .text          0x00113ed4       0x6a prom/krnl_heap_m.o
                0x00113f0e                krnl_Heap::free()
                0x00113ed4                krnl_Heap::init()
 *fill*         0x00113f3e        0x2 00
 .text          0x00113f40      0x1e2 prom/krnl_init_m.o
                0x00113f40                krnl_initialize(krnl_HalAdapter&, krnl_ConfigAdapter&)
 *fill*         0x00114122        0x2 00
 .text          0x00114124       0xa8 prom/krnl_rclk_m.o
                0x00114124                krnl_RtxcClock::init()
                0x00114168                krnl_rtxc_clock_interrupt
 .text          0x001141cc       0x6c prom/krnl_rclkasm_m.o
                0x001141cc                krnl_rtxc_clock_int_call
 .text          0x00114238      0x2b0 prom/krnl_unex_m.o
                0x0011425a                krnl_UnhandledExceptionHandler::install()
                0x00114238                __pure_virtual_called
 .text          0x001144e8      0x87a prom/krnl_trcchnl.o
                0x00114776                krnl_TraceChannel::terminalFlush()
                0x001146da                krnl_TraceChannelImpl::terminalFlush()
                0x00114556                non-virtual thunk to krnl_TraceChannelImpl::granted(krnl_SciResource*)
                0x00114af6                krnl_TraceChannelImpl::krnl_TraceChannelImpl()
                0x001148f2                non-virtual thunk to krnl_TraceChannelImpl::~krnl_TraceChannelImpl()
                0x001148e0                krnl_TraceChannelImpl::~krnl_TraceChannelImpl()
                0x001146ac                krnl_TraceChannel::tracef(char*, char const*, ...)
                0x0011491e                _ZN21krnl_TraceChannelImplC4Ev
                0x001148fc                krnl_TraceChannelImpl::~krnl_TraceChannelImpl()
                0x00114a74                krnl_TraceChannel::init()
                0x001145c8                krnl_TraceChannelImpl::trace(char const*)
                0x001144f2                krnl_TraceChannelImpl::release(krnl_SciResource*, krnl_SciResourceUser const&)
                0x00114814                _ZN21krnl_TraceChannelImplD4Ev
                0x0011478a                krnl_TraceChannelImpl::flush()
                0x001144e8                non-virtual thunk to krnl_TraceChannelImpl::release(krnl_SciResource*, krnl_SciResourceUser const&)
                0x0011490e                krnl_TraceChannelImpl::~krnl_TraceChannelImpl()
                0x00114560                krnl_TraceChannelImpl::granted(krnl_SciResource*)
                0x00114afc                krnl_TraceChannelImpl::main()
                0x00114a6e                krnl_TraceChannelImpl::krnl_TraceChannelImpl()
                0x0011465c                krnl_TraceChannel::trace(char const*)
                0x001148d6                non-virtual thunk to krnl_TraceChannelImpl::~krnl_TraceChannelImpl()
 *fill*         0x00114d62        0x2 00
 .text          0x00114d64        0x0 prom/entry.o
 .text          0x00114d64      0x310 prom/entry_hooks.o
                0x00114d64                core_enableAutoPokeIntWd_c
                0x00114e66                core_initHeapHook_c
                0x00114e1a                core_defaultIsr_c
                0x00114e82                core_ramFailure_c
                0x0011504e                core_basicCpuConfiguration_c
                0x00114d76                core_getBootloaderVersionInfo_c
                0x00114e18                meminit
                0x00114e44                core_promFailure_c
                0x00114d98                initData
                0x00114f42                core_pokeIntWd_c
                0x00114f48                core_startText_c
                0x00114e72                core_okText_c
                0x00114eb0                core_appPromTest_c
                0x00114f5e                core_handleUnexpectedReset_c
 .text          0x00115074      0x3c4 prom/ccbw_int.o
                0x0011511a                ccbw_Interrupts::instance()
                0x00115346                ccbw_autovector_5_interrupt
                0x001151c2                ccbw_Interrupts::setCmioPrioDefault(bool)
                0x0011538a                ccbw_autovector_4_interrupt
                0x0011517a                ccbw_Interrupts::assignDefaultPrioCmioCallBack(void (*)())
                0x00115204                ccbw_Interrupts::enableCommInterrupt()
                0x00115416                ccbw_autovector_1_interrupt
                0x00115340                ccbw_Interrupts::ccbw_Interrupts()
                0x001153ca                ccbw_autovector_3_interrupt
                0x00115318                ccbw_Interrupts::ccbw_Interrupts()
                0x00115214                _ZN15ccbw_InterruptsC4Ev
                0x0011531e                ccbw_Interrupts::init()
                0x00115196                ccbw_Interrupts::assignHighPrioCmioCallBack(void (*)())
                0x001151b2                ccbw_Interrupts::setCmioPrioHigh()
                0x00115122                ccbw_Interrupts::assignArcnet0CallBack(void (*)())
                0x0011516a                ccbw_Interrupts::enableArcnet1Interrupt()
                0x0011513e                ccbw_Interrupts::enableArcnet0Interrupt()
                0x00115076                ccbw_autovector_6_interrupt()
                0x001151e8                ccbw_Interrupts::assignCommCallBack(void (*)())
                0x001153f4                ccbw_autovector_2_interrupt
                0x0011514e                ccbw_Interrupts::assignArcnet1CallBack(void (*)())
 .text          0x00115438      0x21c prom/ccbw_intasm.o
                0x00115510                ccbw_autovector_3_int_call
                0x001155e8                ccbw_autovector_5_int_call
                0x00115438                ccbw_autovector_1_int_call
                0x0011557c                ccbw_autovector_4_int_call
                0x001154a4                ccbw_autovector_2_int_call
 .text          0x00115654       0x68 prom/ccbw_latch.o
                0x00115674                ccbw_OutputLatches::init(ccbw_OutputLatches::LedState)
                0x0011565c                ccbw_OutputLatches::disableOutputs()
                0x00115654                ccbw_OutputLatches::enableOutputs()
                0x001156a2                ccbw_OutputLatches::preInit(ccbw_OutputLatches::LedState)
 .text          0x001156bc      0x23c prom/ccbw_outl0.o
                0x00115706                ccbw_OutputLatch0::clockOnboardIicRomData(bool)
                0x0011583a                ccbw_OutputLatch0::setDoutbusBit(ccbw_OutputLatch0::DOutputBit, bool)
                0x001157be                ccbw_OutputLatch0::ledOrange()
                0x00115724                ccbw_OutputLatch0::clockOnboardIicRomData()
                0x00115752                ccbw_OutputLatch0::setOnboardIicRomData(bool)
                0x00115770                ccbw_OutputLatch0::setBatteryCheckState(bool)
                0x0011585a                ccbw_OutputLatch0::init(ccbw_OutputLatch0::LedState, bool)
                0x0011581c                ccbw_OutputLatch0::setDoutbusMode(bool)
                0x001157ee                ccbw_OutputLatch0::ledRed()
                0x001156bc                ccbw_OutputLatch0::preInit(ccbw_OutputLatch0::LedState)
                0x001156e8                ccbw_OutputLatch0::setOnboardIicRomDirection(bool)
                0x00115790                ccbw_OutputLatch0::ledGreen()
 .text          0x001158f8      0x172 prom/ccbw_outl1.o
                0x0011596e                ccbw_OutputLatch1::setComCpuResetState(bool)
                0x001158f8                ccbw_OutputLatch1::init()
                0x00115a26                ccbw_OutputLatch1::setOffboardRomClock(bool)
                0x00115a08                ccbw_OutputLatch1::setOffboardRomData(bool)
                0x001159bc                ccbw_OutputLatch1::interruptComCpu()
                0x00115a44                ccbw_OutputLatch1::setOffboardRomSelectState(bool)
                0x0011598e                ccbw_OutputLatch1::clearInterruptFromComCpu()
                0x00115950                ccbw_OutputLatch1::setGpOutputState(bool)
                0x00115932                ccbw_OutputLatch1::setOffboardRomDirection(bool)
                0x001159ea                ccbw_OutputLatch1::setComCpuProgrammingState(bool)
 *fill*         0x00115a6a        0x2 00
 .text          0x00115a6c      0x116 prom/ccbw_outl2.o
                0x00115a6c                ccbw_OutputLatch2::init()
                0x00115b5c                ccbw_OutputLatch2::setEarlyWarningToInt7State(bool)
                0x00115af2                ccbw_OutputLatch2::setQspiClkPosition(bool)
                0x00115aa6                ccbw_OutputLatch2::setGeneralEarlyWarningState(bool)
                0x00115b36                ccbw_OutputLatch2::setEarlyWarningToIntCtrlState(bool)
                0x00115b10                ccbw_OutputLatch2::setQspiCsPolarity(bool)
                0x00115acc                ccbw_OutputLatch2::setT2clkInputState(bool)
 *fill*         0x00115b82        0x2 00
 .text          0x00115b84      0x148 prom/cppmain.o
                0x00115c56                core_trc_init()
                0x00115b9c                main::MyConfigAdapter::MyConfigAdapter()
                0x00115caa                core_latches_pre_init()
                0x00115b90                main::MyHalAdapter::MyHalAdapter()
                0x00115ba8                main::MyConfigAdapter::MyConfigAdapter()
                0x00115c50                core_trc_output(char const*)
                0x00115bb4                main
                0x00115cb8                core_fatal_assert_epilog()
                0x00115b84                main::MyHalAdapter::MyHalAdapter()
                0x00115cc6                core_disable_outputs()
 .text          0x00115ccc      0x55c prom/EEPromOnB.o
                0x00115d72                _ZN19Chw_unit_identitiesC4EP13EEPROM_layout
                0x00115fba                Chw_unit_identities::Chw_unit_identities(EEPROM_layout*)
                0x00115ccc                Chw_unit_identities::getCpu_serno()
                0x00115cea                Chw_unit_identities::getUnitMBDno()
                0x00115fb4                Chw_unit_identities::Chw_unit_identities(EEPROM_layout*)
                0x00115cf2                Chw_unit_identities::getUnitSerno()
                0x001161f0                Get_hw_unit_identities()
                0x00115fc0                Get_Chw_unit_identities()
                0x00115ce4                Chw_unit_identities::getCpu_MBDno()
                0x00115d4e                Chw_unit_identities::getPlatform()
                0x00115cdc                Chw_unit_identities::getCpu_version()
                0x00115cd4                Chw_unit_identities::getCpu_variant()
                0x00115cfa                Chw_unit_identities::save_text(char*, unsigned long, char*)
 .text          0x00116228      0x842 prom/EEProm.o
                0x00116348                c_i2cEepromIf::SendAck()
                0x0011691e                c_i2cEepromIf::read(unsigned char, unsigned int, unsigned int, unsigned char*)
                0x0011685c                c_i2cEepromIf::devSelectAddrRd(unsigned char)
                0x0011658c                c_i2cEepromIf::IsDongleConnected(unsigned char)
                0x0011669e                c_i2cEepromIf::WrByte(unsigned char, unsigned char, unsigned char)
                0x0011686e                c_i2cEepromIf::write(unsigned char, unsigned int, unsigned int, unsigned char*)
                0x0011628e                c_i2cEepromIf::Stop()
                0x0011677a                c_i2cEepromIf::RdByte(unsigned char, unsigned char)
                0x00116a64                c_i2cEepromIf::c_i2cEepromIf(keyplug_EepromHardwareAdapter&, char const*)
                0x00116a5e                c_i2cEepromIf::c_i2cEepromIf(keyplug_EepromHardwareAdapter&, char const*)
                0x0011684a                c_i2cEepromIf::devSelectAddrWr(unsigned char)
                0x001169d6                _ZN13c_i2cEepromIfC4ER29keyplug_EepromHardwareAdapterPKc
                0x001169d0                c_i2cEepromIf::~c_i2cEepromIf()
                0x00116330                c_i2cEepromIf::Delay()
                0x001165f0                c_i2cEepromIf::DataIn()
                0x001163d4                c_i2cEepromIf::SendNAck()
                0x00116462                c_i2cEepromIf::DataOut(unsigned char)
                0x00116228                c_i2cEepromIf::Start()
                0x001169ca                c_i2cEepromIf::~c_i2cEepromIf()
 *fill*         0x00116a6a        0x2 00
 .text          0x00116a6c        0x0 prom/listreg.o
 .text          0x00116a6c      0x40e prom/nctrl_resetcmd.o
                0x00116adc                nctrl_ResetCommand::Boot::forcedDownload(unsigned char*)
                0x00116a6c                checkBootCommand(unsigned char, unsigned char*)
                0x00116bec                nctrl_ResetCommand::acknowledge()
                0x00116cb6                nctrl_ResetCommand::writeBootCommand(unsigned char, unsigned char)
                0x00116b44                nctrl_ResetCommand::Boot::freshlyDownloaded()
                0x00116e60                nctrl_ResetCommand::Boot::requestForcedDownload(unsigned char)
                0x00116e50                nctrl_ResetCommand::Boot::indicateFreshDownload()
 *fill*         0x00116e7a        0x2 00
 .text          0x00116e7c     0x1af6 prom/softfloat.o
                0x00117ace                float32_mul(unsigned int, unsigned int)
                0x0011757e                float32_round_to_int(unsigned int)
                0x0011735a                int32_to_float32(int)
                0x00118652                float32_lt(unsigned int, unsigned int)
                0x00117a3e                float32_add(unsigned int, unsigned int)
                0x00117082                float_raise(int)
                0x00117a86                float32_sub(unsigned int, unsigned int)
                0x001185b4                float32_le(unsigned int, unsigned int)
                0x001173ae                float32_to_int32(unsigned int)
                0x00118870                float32_lt_quiet(unsigned int, unsigned int)
                0x00118772                float32_le_quiet(unsigned int, unsigned int)
                0x00117d42                float32_div(unsigned int, unsigned int)
                0x00118700                float32_eq_signaling(unsigned int, unsigned int)
                0x001174c6                float32_to_int32_round_to_zero(unsigned int)
                0x001184e2                float32_eq(unsigned int, unsigned int)
                0x0011708e                float32_is_nan(unsigned int)
                0x001170a2                float32_is_signaling_nan(unsigned int)
                0x00117fe4                float32_rem(unsigned int, unsigned int)
                0x001182de                float32_sqrt(unsigned int)
 *fill*         0x00118972        0x2 00
 .text          0x00118974       0xc6 prom/softfloatmap.o
                0x001189c8                float_mul(float, float)
                0x001189aa                float_div(float, float)
                0x001189e6                float_sub(float, float)
                0x00118a04                float_add(float, float)
                0x0011898c                float_rem(float, float)
                0x00118a22                float_round_to_int(float)
                0x00118974                float_sqrt(float)
 *fill*         0x00118a3a        0x2 00
 .text          0x00118a3c       0x1c D:\synergy\ccm_wa\tmbo\ME_ECS\HMI_devel-tmbo_bes_1211\HMI_devel\gnuc\bes\lib\gcc\m68k-bes-rtems4.9\4.3.2\mcpu32/crtend.o
 .text          0x00118a58        0x0 D:\synergy\ccm_wa\tmbo\ME_ECS\HMI_devel-tmbo_bes_1211\HMI_devel\gnuc\bes\m68k-bes-rtems4.9\lib\mcpu32/libstdc++.a(class_type_info.o)
 .text          0x00118a58        0x0 D:\synergy\ccm_wa\tmbo\ME_ECS\HMI_devel-tmbo_bes_1211\HMI_devel\gnuc\bes\m68k-bes-rtems4.9\lib\mcpu32/libstdc++.a(del_opv.o)
 .text          0x00118a58        0x0 D:\synergy\ccm_wa\tmbo\ME_ECS\HMI_devel-tmbo_bes_1211\HMI_devel\gnuc\bes\m68k-bes-rtems4.9\lib\mcpu32/libstdc++.a(new_opv.o)
 .text          0x00118a58        0x0 D:\synergy\ccm_wa\tmbo\ME_ECS\HMI_devel-tmbo_bes_1211\HMI_devel\gnuc\bes\m68k-bes-rtems4.9\lib\mcpu32/libstdc++.a(si_class_type_info.o)
 .text          0x00118a58        0x0 D:\synergy\ccm_wa\tmbo\ME_ECS\HMI_devel-tmbo_bes_1211\HMI_devel\gnuc\bes\m68k-bes-rtems4.9\lib\mcpu32/libstdc++.a(tinfo.o)
 .text          0x00118a58        0x0 D:\synergy\ccm_wa\tmbo\ME_ECS\HMI_devel-tmbo_bes_1211\HMI_devel\gnuc\bes\m68k-bes-rtems4.9\lib\mcpu32/libstdc++.a(vmi_class_type_info.o)
 .text          0x00118a58      0x16e D:\synergy\ccm_wa\tmbo\ME_ECS\HMI_devel-tmbo_bes_1211\HMI_devel\gnuc\bes\m68k-bes-rtems4.9\lib\mcpu32/libm.a(lib_a-s_floor.o)
                0x00118a58                floor
 *fill*         0x00118bc6        0x2 00
 .text          0x00118bc8       0xee D:\synergy\ccm_wa\tmbo\ME_ECS\HMI_devel-tmbo_bes_1211\HMI_devel\gnuc\bes\m68k-bes-rtems4.9\lib\mcpu32/libm.a(lib_a-w_sqrt.o)
                0x00118bc8                sqrt
 *fill*         0x00118cb6        0x2 00
 .text          0x00118cb8      0x1ca D:\synergy\ccm_wa\tmbo\ME_ECS\HMI_devel-tmbo_bes_1211\HMI_devel\gnuc\bes\m68k-bes-rtems4.9\lib\mcpu32/libm.a(lib_a-e_sqrt.o)
                0x00118cb8                __ieee754_sqrt
 *fill*         0x00118e82        0x2 00
 .text          0x00118e84       0x2c D:\synergy\ccm_wa\tmbo\ME_ECS\HMI_devel-tmbo_bes_1211\HMI_devel\gnuc\bes\m68k-bes-rtems4.9\lib\mcpu32/libm.a(lib_a-s_isnand.o)
                0x00118e84                __isnand
 .text          0x00118eb0        0x0 D:\synergy\ccm_wa\tmbo\ME_ECS\HMI_devel-tmbo_bes_1211\HMI_devel\gnuc\bes\m68k-bes-rtems4.9\lib\mcpu32/libm.a(lib_a-s_lib_ver.o)
 .text          0x00118eb0        0x4 D:\synergy\ccm_wa\tmbo\ME_ECS\HMI_devel-tmbo_bes_1211\HMI_devel\gnuc\bes\m68k-bes-rtems4.9\lib\mcpu32/libm.a(lib_a-s_matherr.o)
                0x00118eb0                matherr
 .text          0x00118eb4      0x9cc D:\synergy\ccm_wa\tmbo\ME_ECS\HMI_devel-tmbo_bes_1211\HMI_devel\gnuc\bes\lib\gcc\m68k-bes-rtems4.9\4.3.2\mcpu32/libgcc.a(_double.o)
                0x001197fa                __cmpdf2
                0x00118f14                __adddf3
                0x001196cc                __negdf2
                0x00119458                __divdf3
                0x0011972a                __cmpdf2_internal
                0x001192aa                __muldf3
                0x00118f0e                __subdf3
 .text          0x00119880      0x72c D:\synergy\ccm_wa\tmbo\ME_ECS\HMI_devel-tmbo_bes_1211\HMI_devel\gnuc\bes\lib\gcc\m68k-bes-rtems4.9\4.3.2\mcpu32/libgcc.a(_float.o)
                0x00119c8a                __divsf3
                0x001198c8                __subsf3
                0x00119e50                __negsf2
                0x00119f3e                __cmpsf2
                0x00119ea2                __cmpsf2_internal
                0x00119b5e                __mulsf3
                0x001198ce                __addsf3
 .text          0x00119fac       0x6a D:\synergy\ccm_wa\tmbo\ME_ECS\HMI_devel-tmbo_bes_1211\HMI_devel\gnuc\bes\lib\gcc\m68k-bes-rtems4.9\4.3.2\mcpu32/libgcc.a(_floatex.o)
                0x00119fba                $_exception_handler
                0x00119fac                __clear_sticky_bit
 *fill*         0x0011a016        0x2 00
 .text          0x0011a018       0x22 D:\synergy\ccm_wa\tmbo\ME_ECS\HMI_devel-tmbo_bes_1211\HMI_devel\gnuc\bes\lib\gcc\m68k-bes-rtems4.9\4.3.2\mcpu32/libgcc.a(_gtdf2.o)
                0x0011a018                __gtdf2
 *fill*         0x0011a03a        0x2 00
 .text          0x0011a03c       0x22 D:\synergy\ccm_wa\tmbo\ME_ECS\HMI_devel-tmbo_bes_1211\HMI_devel\gnuc\bes\lib\gcc\m68k-bes-rtems4.9\4.3.2\mcpu32/libgcc.a(_ltdf2.o)
                0x0011a03c                __ltdf2
 *fill*         0x0011a05e        0x2 00
 .text          0x0011a060      0x378 D:\synergy\ccm_wa\tmbo\ME_ECS\HMI_devel-tmbo_bes_1211\HMI_devel\gnuc\bes\lib\gcc\m68k-bes-rtems4.9\4.3.2\mcpu32/libgcc.a(fpgnulib.o)
                0x0011a3c0                __fixsfsi
                0x0011a15a                __floatsidf
                0x0011a202                __extendsfdf2
                0x0011a10a                __floatunsidf
                0x0011a34e                __fixdfsi
                0x0011a1e8                __floatsisf
                0x0011a270                __truncdfsf2
                0x0011a060                __unordsf2
                0x0011a1ce                __floatunsisf
                0x0011a0a2                __unorddf2
 .text          0x0011a3d8        0xa D:\synergy\ccm_wa\tmbo\ME_ECS\HMI_devel-tmbo_bes_1211\HMI_devel\gnuc\bes\m68k-bes-rtems4.9\lib\mcpu32/libc.a(lib_a-abs.o)
                0x0011a3d8                abs
 *fill*         0x0011a3e2        0x2 00
 .text          0x0011a3e4       0x16 D:\synergy\ccm_wa\tmbo\ME_ECS\HMI_devel-tmbo_bes_1211\HMI_devel\gnuc\bes\m68k-bes-rtems4.9\lib\mcpu32/libc.a(lib_a-atexit.o)
                0x0011a3e4                atexit
 *fill*         0x0011a3fa        0x2 00
 .text          0x0011a3fc       0x30 D:\synergy\ccm_wa\tmbo\ME_ECS\HMI_devel-tmbo_bes_1211\HMI_devel\gnuc\bes\m68k-bes-rtems4.9\lib\mcpu32/libc.a(lib_a-atoi.o)
                0x0011a3fc                _atoi_r
                0x0011a416                atoi
 .text          0x0011a42c        0x8 D:\synergy\ccm_wa\tmbo\ME_ECS\HMI_devel-tmbo_bes_1211\HMI_devel\gnuc\bes\m68k-bes-rtems4.9\lib\mcpu32/libc.a(lib_a-errno.o)
                0x0011a42c                __errno
 .text          0x0011a434       0x2e D:\synergy\ccm_wa\tmbo\ME_ECS\HMI_devel-tmbo_bes_1211\HMI_devel\gnuc\bes\m68k-bes-rtems4.9\lib\mcpu32/libc.a(lib_a-exit.o)
                0x0011a434                exit
 *fill*         0x0011a462        0x2 00
 .text          0x0011a464        0x0 D:\synergy\ccm_wa\tmbo\ME_ECS\HMI_devel-tmbo_bes_1211\HMI_devel\gnuc\bes\m68k-bes-rtems4.9\lib\mcpu32/libc.a(lib_a-impure.o)
 .text          0x0011a464       0x84 D:\synergy\ccm_wa\tmbo\ME_ECS\HMI_devel-tmbo_bes_1211\HMI_devel\gnuc\bes\m68k-bes-rtems4.9\lib\mcpu32/libc.a(lib_a-init.o)
                0x0011a494                __libc_init_array
                0x0011a464                __libc_fini_array
 .text          0x0011a4e8       0x72 D:\synergy\ccm_wa\tmbo\ME_ECS\HMI_devel-tmbo_bes_1211\HMI_devel\gnuc\bes\m68k-bes-rtems4.9\lib\mcpu32/libc.a(lib_a-memset.o)
                0x0011a4e8                memset
 *fill*         0x0011a55a        0x2 00
 .text          0x0011a55c       0xa2 D:\synergy\ccm_wa\tmbo\ME_ECS\HMI_devel-tmbo_bes_1211\HMI_devel\gnuc\bes\m68k-bes-rtems4.9\lib\mcpu32/libc.a(lib_a-sprintf.o)
                0x0011a5ae                _sprintf_r
                0x0011a55c                sprintf
 *fill*         0x0011a5fe        0x2 00
 .text          0x0011a600       0x22 D:\synergy\ccm_wa\tmbo\ME_ECS\HMI_devel-tmbo_bes_1211\HMI_devel\gnuc\bes\m68k-bes-rtems4.9\lib\mcpu32/libc.a(lib_a-strcmp.o)
                0x0011a600                strcmp
 *fill*         0x0011a622        0x2 00
 .text          0x0011a624       0x18 D:\synergy\ccm_wa\tmbo\ME_ECS\HMI_devel-tmbo_bes_1211\HMI_devel\gnuc\bes\m68k-bes-rtems4.9\lib\mcpu32/libc.a(lib_a-strcpy.o)
                0x0011a624                strcpy
 .text          0x0011a63c       0x16 D:\synergy\ccm_wa\tmbo\ME_ECS\HMI_devel-tmbo_bes_1211\HMI_devel\gnuc\bes\m68k-bes-rtems4.9\lib\mcpu32/libc.a(lib_a-strlen.o)
                0x0011a63c                strlen
 *fill*         0x0011a652        0x2 00
 .text          0x0011a654       0x32 D:\synergy\ccm_wa\tmbo\ME_ECS\HMI_devel-tmbo_bes_1211\HMI_devel\gnuc\bes\m68k-bes-rtems4.9\lib\mcpu32/libc.a(lib_a-strncmp.o)
                0x0011a654                strncmp
 *fill*         0x0011a686        0x2 00
 .text          0x0011a688      0x13e D:\synergy\ccm_wa\tmbo\ME_ECS\HMI_devel-tmbo_bes_1211\HMI_devel\gnuc\bes\m68k-bes-rtems4.9\lib\mcpu32/libc.a(lib_a-strtol.o)
                0x0011a7a8                strtol
                0x0011a688                _strtol_r
 *fill*         0x0011a7c6        0x2 00
 .text          0x0011a7c8     0x17ae D:\synergy\ccm_wa\tmbo\ME_ECS\HMI_devel-tmbo_bes_1211\HMI_devel\gnuc\bes\m68k-bes-rtems4.9\lib\mcpu32/libc.a(lib_a-vfprintf.o)
                0x0011a7fc                _vfprintf_r
                0x0011bf58                vfprintf
 *fill*         0x0011bf76        0x2 00
 .text          0x0011bf78       0x6e D:\synergy\ccm_wa\tmbo\ME_ECS\HMI_devel-tmbo_bes_1211\HMI_devel\gnuc\bes\m68k-bes-rtems4.9\lib\mcpu32/libc.a(lib_a-vsprintf.o)
                0x0011bfc8                vsprintf
                0x0011bf78                _vsprintf_r
 *fill*         0x0011bfe6        0x2 00
 .text          0x0011bfe8       0xd6 D:\synergy\ccm_wa\tmbo\ME_ECS\HMI_devel-tmbo_bes_1211\HMI_devel\gnuc\bes\m68k-bes-rtems4.9\lib\mcpu32/libc.a(lib_a-wsetup.o)
                0x0011bfe8                __swsetup_r
 *fill*         0x0011c0be        0x2 00
 .text          0x0011c0c0       0x9a D:\synergy\ccm_wa\tmbo\ME_ECS\HMI_devel-tmbo_bes_1211\HMI_devel\gnuc\bes\m68k-bes-rtems4.9\lib\mcpu32/libc.a(lib_a-__atexit.o)
                0x0011c0c0                __register_exitproc
 *fill*         0x0011c15a        0x2 00
 .text          0x0011c15c       0xc4 D:\synergy\ccm_wa\tmbo\ME_ECS\HMI_devel-tmbo_bes_1211\HMI_devel\gnuc\bes\m68k-bes-rtems4.9\lib\mcpu32/libc.a(lib_a-__call_atexit.o)
                0x0011c15c                __call_exitprocs
 .text          0x0011c220        0x0 D:\synergy\ccm_wa\tmbo\ME_ECS\HMI_devel-tmbo_bes_1211\HMI_devel\gnuc\bes\m68k-bes-rtems4.9\lib\mcpu32/libc.a(lib_a-ctype_.o)
 .text          0x0011c220     0x10a6 D:\synergy\ccm_wa\tmbo\ME_ECS\HMI_devel-tmbo_bes_1211\HMI_devel\gnuc\bes\m68k-bes-rtems4.9\lib\mcpu32/libc.a(lib_a-dtoa.o)
                0x0011c380                _dtoa_r
 *fill*         0x0011d2c6        0x2 00
 .text          0x0011d2c8      0x154 D:\synergy\ccm_wa\tmbo\ME_ECS\HMI_devel-tmbo_bes_1211\HMI_devel\gnuc\bes\m68k-bes-rtems4.9\lib\mcpu32/libc.a(lib_a-fflush.o)
                0x0011d3ee                fflush
                0x0011d2c8                _fflush_r
 .text          0x0011d41c      0x25a D:\synergy\ccm_wa\tmbo\ME_ECS\HMI_devel-tmbo_bes_1211\HMI_devel\gnuc\bes\m68k-bes-rtems4.9\lib\mcpu32/libc.a(lib_a-findfp.o)
                0x0011d41c                __sinit
                0x0011d58a                __sfmoreglue
                0x0011d574                _cleanup
                0x0011d560                _cleanup_r
                0x0011d54c                __fp_lock_all
                0x0011d528                __sfp_lock_acquire
                0x0011d5de                __sfp
                0x0011d52e                __sinit_lock_release
                0x0011d538                __fp_unlock_all
                0x0011d52a                __sfp_lock_release
                0x0011d52c                __sinit_lock_acquire
 *fill*         0x0011d676        0x2 00
 .text          0x0011d678      0x31a D:\synergy\ccm_wa\tmbo\ME_ECS\HMI_devel-tmbo_bes_1211\HMI_devel\gnuc\bes\m68k-bes-rtems4.9\lib\mcpu32/libc.a(lib_a-fvwrite.o)
                0x0011d678                __sfvwrite_r
 *fill*         0x0011d992        0x2 00
 .text          0x0011d994       0xb0 D:\synergy\ccm_wa\tmbo\ME_ECS\HMI_devel-tmbo_bes_1211\HMI_devel\gnuc\bes\m68k-bes-rtems4.9\lib\mcpu32/libc.a(lib_a-fwalk.o)
                0x0011d9ee                _fwalk
                0x0011d994                _fwalk_reent
 .text          0x0011da44       0x88 D:\synergy\ccm_wa\tmbo\ME_ECS\HMI_devel-tmbo_bes_1211\HMI_devel\gnuc\bes\m68k-bes-rtems4.9\lib\mcpu32/libc.a(lib_a-locale.o)
                0x0011da5c                _setlocale_r
                0x0011da44                __locale_charset
                0x0011da4c                _localeconv_r
                0x0011dab2                setlocale
                0x0011da54                localeconv
 .text          0x0011dacc      0x10c D:\synergy\ccm_wa\tmbo\ME_ECS\HMI_devel-tmbo_bes_1211\HMI_devel\gnuc\bes\m68k-bes-rtems4.9\lib\mcpu32/libc.a(lib_a-makebuf.o)
                0x0011dacc                __smakebuf_r
 .text          0x0011dbd8       0x2c D:\synergy\ccm_wa\tmbo\ME_ECS\HMI_devel-tmbo_bes_1211\HMI_devel\gnuc\bes\m68k-bes-rtems4.9\lib\mcpu32/libc.a(lib_a-memchr.o)
                0x0011dbd8                memchr
 .text          0x0011dc04       0x4a D:\synergy\ccm_wa\tmbo\ME_ECS\HMI_devel-tmbo_bes_1211\HMI_devel\gnuc\bes\m68k-bes-rtems4.9\lib\mcpu32/libc.a(lib_a-memmove.o)
                0x0011dc04                memmove
 *fill*         0x0011dc4e        0x2 00
 .text          0x0011dc50      0xa70 D:\synergy\ccm_wa\tmbo\ME_ECS\HMI_devel-tmbo_bes_1211\HMI_devel\gnuc\bes\m68k-bes-rtems4.9\lib\mcpu32/libc.a(lib_a-mprec.o)
                0x0011def8                _mprec_log10
                0x0011df88                __any_on
                0x0011dfde                _Balloc
                0x0011de80                __ratio
                0x0011e472                __i2b
                0x0011ddda                __b2d
                0x0011e5f8                __s2b
                0x0011dd3c                __mcmp
                0x0011dc6e                __hi0bits
                0x0011e546                __pow5mult
                0x0011e278                __lshift
                0x0011e31e                __multiply
                0x0011e05e                __d2b
                0x0011df4c                __copybits
                0x0011dd82                __ulp
                0x0011e158                __mdiff
                0x0011dcc6                __lo0bits
                0x0011e492                __multadd
                0x0011dc50                _Bfree
 .text          0x0011e6c0       0x86 D:\synergy\ccm_wa\tmbo\ME_ECS\HMI_devel-tmbo_bes_1211\HMI_devel\gnuc\bes\m68k-bes-rtems4.9\lib\mcpu32/libc.a(lib_a-s_frexp.o)
                0x0011e6c0                frexp
 *fill*         0x0011e746        0x2 00
 .text          0x0011e748       0x30 D:\synergy\ccm_wa\tmbo\ME_ECS\HMI_devel-tmbo_bes_1211\HMI_devel\gnuc\bes\m68k-bes-rtems4.9\lib\mcpu32/libc.a(lib_a-s_isinfd.o)
                0x0011e748                __isinfd
 .text          0x0011e778       0xde D:\synergy\ccm_wa\tmbo\ME_ECS\HMI_devel-tmbo_bes_1211\HMI_devel\gnuc\bes\m68k-bes-rtems4.9\lib\mcpu32/libc.a(lib_a-stdio.o)
                0x0011e78a                __sseek
                0x0011e820                __sread
                0x0011e778                __sclose
                0x0011e7c8                __swrite
 *fill*         0x0011e856        0x2 00
 .text          0x0011e858       0xce D:\synergy\ccm_wa\tmbo\ME_ECS\HMI_devel-tmbo_bes_1211\HMI_devel\gnuc\bes\m68k-bes-rtems4.9\lib\mcpu32/libc.a(lib_a-fclose.o)
                0x0011e858                _fclose_r
                0x0011e912                fclose
 *fill*         0x0011e926        0x2 00
 .text          0x0011e928       0x22 D:\synergy\ccm_wa\tmbo\ME_ECS\HMI_devel-tmbo_bes_1211\HMI_devel\gnuc\bes\lib\gcc\m68k-bes-rtems4.9\4.3.2\mcpu32/libgcc.a(_eqdf2.o)
                0x0011e928                __eqdf2
 *fill*         0x0011e94a        0x2 00
 .text          0x0011e94c       0x22 D:\synergy\ccm_wa\tmbo\ME_ECS\HMI_devel-tmbo_bes_1211\HMI_devel\gnuc\bes\lib\gcc\m68k-bes-rtems4.9\4.3.2\mcpu32/libgcc.a(_nedf2.o)
                0x0011e94c                __nedf2
 *fill*         0x0011e96e        0x2 00
 .text          0x0011e970       0x22 D:\synergy\ccm_wa\tmbo\ME_ECS\HMI_devel-tmbo_bes_1211\HMI_devel\gnuc\bes\lib\gcc\m68k-bes-rtems4.9\4.3.2\mcpu32/libgcc.a(_gedf2.o)
                0x0011e970                __gedf2
 *fill*         0x0011e992        0x2 00
 .text          0x0011e994       0xf8 D:\synergy\ccm_wa\tmbo\ME_ECS\HMI_devel-tmbo_bes_1211\HMI_devel\gnuc\bes\lib\gcc\m68k-bes-rtems4.9\4.3.2\mcpu32/libgcc.a(_udivdi3.o)
                0x0011e994                __udivdi3
 .text          0x0011ea8c      0x110 D:\synergy\ccm_wa\tmbo\ME_ECS\HMI_devel-tmbo_bes_1211\HMI_devel\gnuc\bes\lib\gcc\m68k-bes-rtems4.9\4.3.2\mcpu32/libgcc.a(_umoddi3.o)
                0x0011ea8c                __umoddi3
 .text          0x0011eb9c      0x72c D:\synergy\ccm_wa\tmbo\ME_ECS\HMI_devel-tmbo_bes_1211\HMI_devel\gnuc\bes\lib\gcc\m68k-bes-rtems4.9\4.3.2\mcpu32/libgcc.a(xfgnulib.o)
                0x0011f0be                __nexf2
                0x0011f070                __ltxf2
                0x0011ef2c                __negxf2
                0x0011f10c                __eqxf2
                0x0011f022                __lexf2
                0x0011ef86                __gexf2
                0x0011ec1a                __extenddfxf2
                0x0011f1a8                __fixxfsi
                0x0011eb9c                __unordxf2
                0x0011ecb0                __truncxfdf2
                0x0011ee38                __mulxf3
                0x0011f214                __floatsixf
                0x0011edbe                __subxf3
                0x0011f15a                __cmpxf2
                0x0011f25c                __truncxfsf2
                0x0011f1cc                __floatunsixf
                0x0011eeb2                __divxf3
                0x0011f280                __extendsfxf2
                0x0011ed44                __addxf3
                0x0011efd4                __gtxf2
 .text          0x0011f2c8        0x0 D:\synergy\ccm_wa\tmbo\ME_ECS\HMI_devel-tmbo_bes_1211\HMI_devel\gnuc\bes\lib\gcc\m68k-bes-rtems4.9\4.3.2\mcpu32/libgcc.a(_clz.o)
                0x0011f2c8                . = ALIGN (0x2)
                0x0011f2c8                __preinit_array_start = .
 *(.preinit_array)
                0x0011f2c8                __preinit_array_end = .
                0x0011f2c8                . = ALIGN (0x2)
                0x0011f2c8                __init_array_start = .
 *(SORT(.init_array.*))
 *(.init_array)
                0x0011f2c8                __init_array_end = .
                0x0011f2c8                . = ALIGN (0x2)
 *crtbegin.o(.ctors)
 .ctors         0x0011f2c8        0x4 D:\synergy\ccm_wa\tmbo\ME_ECS\HMI_devel-tmbo_bes_1211\HMI_devel\gnuc\bes\lib\gcc\m68k-bes-rtems4.9\4.3.2\mcpu32/crtbegin.o
 *(EXCLUDE_FILE(*crtend.o) .ctors)
 .ctors         0x0011f2cc        0x4 prom/krnl_taskid_r.o
 .ctors         0x0011f2d0        0x4 prom/krnl_wait_r.o
 .ctors         0x0011f2d4        0x4 prom/krnl_satst.o
 *(SORT(.ctors.*))
                0x0011f2d8                __CTOR_END__ = .
 *crtend.o(.ctors)
 .ctors         0x0011f2d8        0x4 D:\synergy\ccm_wa\tmbo\ME_ECS\HMI_devel-tmbo_bes_1211\HMI_devel\gnuc\bes\lib\gcc\m68k-bes-rtems4.9\4.3.2\mcpu32/crtend.o
                0x0011f2dc                . = ALIGN (0x2)
 *(.fini)
 .fini          0x0011f2dc        0x6 D:\synergy\ccm_wa\tmbo\ME_ECS\HMI_devel-tmbo_bes_1211\HMI_devel\gnuc\bes\lib\gcc\m68k-bes-rtems4.9\4.3.2\mcpu32/crtbegin.o
                0x0011f2e2                . = ALIGN (0x2)
                0x0011f2e2                __fini_array_start = .
 *(.fini_array)
 *(SORT(.fini_array.*))
                0x0011f2e2                __fini_array_end = .
 *crtbegin.o(.dtors)
 *fill*         0x0011f2e2        0x2 00
 .dtors         0x0011f2e4        0x4 D:\synergy\ccm_wa\tmbo\ME_ECS\HMI_devel-tmbo_bes_1211\HMI_devel\gnuc\bes\lib\gcc\m68k-bes-rtems4.9\4.3.2\mcpu32/crtbegin.o
 *(EXCLUDE_FILE(*crtend.o) .dtors)
 .dtors         0x0011f2e8        0x4 prom/krnl_taskid_r.o
 *(SORT(.dtors.*))
 *crtend.o(.dtors)
 .dtors         0x0011f2ec        0x4 D:\synergy\ccm_wa\tmbo\ME_ECS\HMI_devel-tmbo_bes_1211\HMI_devel\gnuc\bes\lib\gcc\m68k-bes-rtems4.9\4.3.2\mcpu32/crtend.o
                0x0011f2ec                __DTOR_END__

.text._ZN16flsh_DeviceAm29FD1Ev
                0x0011f2f0       0x10
 .text._ZN16flsh_DeviceAm29FD1Ev
                0x0011f2f0       0x10 prom/flsh_device_amd.o
                0x0011f2f0                flsh_DeviceAm29F::~flsh_DeviceAm29F()

.text._ZN16flsh_DeviceAm29FD0Ev
                0x0011f300       0x22
 .text._ZN16flsh_DeviceAm29FD0Ev
                0x0011f300       0x22 prom/flsh_device_amd.o
                0x0011f300                flsh_DeviceAm29F::~flsh_DeviceAm29F()

.text._ZN15flsh_BlockAm29FD0Ev
                0x0011f322       0x22
 .text._ZN15flsh_BlockAm29FD0Ev
                0x0011f322       0x22 prom/flsh_device_amd.o
                0x0011f322                flsh_BlockAm29F::~flsh_BlockAm29F()

.text._ZN15flsh_BlockAm29FD1Ev
                0x0011f344       0x10
 .text._ZN15flsh_BlockAm29FD1Ev
                0x0011f344       0x10 prom/flsh_device_amd.o
                0x0011f344                flsh_BlockAm29F::~flsh_BlockAm29F()

.text._ZN15flsh_DeviceI28FD1Ev
                0x0011f354       0x10
 .text._ZN15flsh_DeviceI28FD1Ev
                0x0011f354       0x10 prom/flsh_device_intel.o
                0x0011f354                flsh_DeviceI28F::~flsh_DeviceI28F()

.text._ZN15flsh_DeviceI28FD0Ev
                0x0011f364       0x22
 .text._ZN15flsh_DeviceI28FD0Ev
                0x0011f364       0x22 prom/flsh_device_intel.o
                0x0011f364                flsh_DeviceI28F::~flsh_DeviceI28F()

.text._ZN14flsh_BlockI28FD0Ev
                0x0011f386       0x22
 .text._ZN14flsh_BlockI28FD0Ev
                0x0011f386       0x22 prom/flsh_device_intel.o
                0x0011f386                flsh_BlockI28F::~flsh_BlockI28F()

.text._ZN14flsh_BlockI28FD1Ev
                0x0011f3a8       0x10
 .text._ZN14flsh_BlockI28FD1Ev
                0x0011f3a8       0x10 prom/flsh_device_intel.o
                0x0011f3a8                flsh_BlockI28F::~flsh_BlockI28F()

.text._ZN14flsh_DeviceRamD1Ev
                0x0011f3b8       0x10
 .text._ZN14flsh_DeviceRamD1Ev
                0x0011f3b8       0x10 prom/flsh_device_ram.o
                0x0011f3b8                flsh_DeviceRam::~flsh_DeviceRam()

.text._ZN14flsh_DeviceRamD0Ev
                0x0011f3c8       0x22
 .text._ZN14flsh_DeviceRamD0Ev
                0x0011f3c8       0x22 prom/flsh_device_ram.o
                0x0011f3c8                flsh_DeviceRam::~flsh_DeviceRam()

.text._ZN13flsh_BlockRamD0Ev
                0x0011f3ea       0x22
 .text._ZN13flsh_BlockRamD0Ev
                0x0011f3ea       0x22 prom/flsh_device_ram.o
                0x0011f3ea                flsh_BlockRam::~flsh_BlockRam()

.text._ZN13flsh_BlockRamD1Ev
                0x0011f40c       0x10
 .text._ZN13flsh_BlockRamD1Ev
                0x0011f40c       0x10 prom/flsh_device_ram.o
                0x0011f40c                flsh_BlockRam::~flsh_BlockRam()

.text._ZN16krnl_FlashMemoryItEC2EP11flsh_MemoryP20krnl_StorageResource
                0x0011f41c       0x74
 .text._ZN16krnl_FlashMemoryItEC2EP11flsh_MemoryP20krnl_StorageResource
                0x0011f41c       0x74 prom/flsh_manager.o
                0x0011f41c                krnl_FlashMemory<unsigned short>::krnl_FlashMemory(flsh_Memory*, krnl_StorageResource*)

.text._ZN15krnl_FlashBlockItEC1EP10flsh_BlockP20krnl_StorageResource
                0x0011f490       0x56
 .text._ZN15krnl_FlashBlockItEC1EP10flsh_BlockP20krnl_StorageResource
                0x0011f490       0x56 prom/flsh_manager.o
                0x0011f490                krnl_FlashBlock<unsigned short>::krnl_FlashBlock(flsh_Block*, krnl_StorageResource*)

.text._ZN16krnl_FlashDeviceItEC4EP11flsh_Device
                0x0011f4e6      0x12a
 .text._ZN16krnl_FlashDeviceItEC4EP11flsh_Device
                0x0011f4e6      0x12a prom/flsh_manager.o
                0x0011f4e6                _ZN16krnl_FlashDeviceItEC4EP11flsh_Device

.text._ZN16krnl_FlashDeviceItEC1EP11flsh_Device
                0x0011f610        0x6
 .text._ZN16krnl_FlashDeviceItEC1EP11flsh_Device
                0x0011f610        0x6 prom/flsh_manager.o
                0x0011f610                krnl_FlashDevice<unsigned short>::krnl_FlashDevice(flsh_Device*)

.text._ZN16krnl_FlashMemoryIhEC2EP11flsh_MemoryP20krnl_StorageResource
                0x0011f616       0x74
 .text._ZN16krnl_FlashMemoryIhEC2EP11flsh_MemoryP20krnl_StorageResource
                0x0011f616       0x74 prom/flsh_manager.o
                0x0011f616                krnl_FlashMemory<unsigned char>::krnl_FlashMemory(flsh_Memory*, krnl_StorageResource*)

.text._ZN15krnl_FlashBlockIhEC1EP10flsh_BlockP20krnl_StorageResource
                0x0011f68a       0x56
 .text._ZN15krnl_FlashBlockIhEC1EP10flsh_BlockP20krnl_StorageResource
                0x0011f68a       0x56 prom/flsh_manager.o
                0x0011f68a                krnl_FlashBlock<unsigned char>::krnl_FlashBlock(flsh_Block*, krnl_StorageResource*)

.text._ZN16krnl_FlashDeviceIhEC4EP11flsh_Device
                0x0011f6e0      0x12a
 .text._ZN16krnl_FlashDeviceIhEC4EP11flsh_Device
                0x0011f6e0      0x12a prom/flsh_manager.o
                0x0011f6e0                _ZN16krnl_FlashDeviceIhEC4EP11flsh_Device

.text._ZN16krnl_FlashDeviceIhEC1EP11flsh_Device
                0x0011f80a        0x6
 .text._ZN16krnl_FlashDeviceIhEC1EP11flsh_Device
                0x0011f80a        0x6 prom/flsh_manager.o
                0x0011f80a                krnl_FlashDevice<unsigned char>::krnl_FlashDevice(flsh_Device*)

.text._ZN16krnl_FlashDeviceItED1Ev
                0x0011f810       0x58
 .text._ZN16krnl_FlashDeviceItED1Ev
                0x0011f810       0x58 prom/flsh_manager.o
                0x0011f810                krnl_FlashDevice<unsigned short>::~krnl_FlashDevice()

.text._ZN16krnl_FlashDeviceIhED1Ev
                0x0011f868       0x58
 .text._ZN16krnl_FlashDeviceIhED1Ev
                0x0011f868       0x58 prom/flsh_manager.o
                0x0011f868                krnl_FlashDevice<unsigned char>::~krnl_FlashDevice()

.text._ZN20krnl_SingleTaskTimerD0Ev
                0x0011f8c0       0x4a
 .text._ZN20krnl_SingleTaskTimerD0Ev
                0x0011f8c0       0x4a prom/krnl_astd.o
                0x0011f8c0                krnl_SingleTaskTimer::~krnl_SingleTaskTimer()

.text._ZN20krnl_SingleTaskTimerD1Ev
                0x0011f90a       0x40
 .text._ZN20krnl_SingleTaskTimerD1Ev
                0x0011f90a       0x40 prom/krnl_astd.o
                0x0011f90a                krnl_SingleTaskTimer::~krnl_SingleTaskTimer()

.text._ZNK12ListRegistryI28krnl_ProgrammedResetObserverE7GetNextEv
                0x0011f94a        0xa
 .text._ZNK12ListRegistryI28krnl_ProgrammedResetObserverE7GetNextEv
                0x0011f94a        0xa prom/krnl_alog.o
                0x0011f94a                ListRegistry<krnl_ProgrammedResetObserver>::GetNext() const

.text._ZN16krnl_FlashVectorI19krnl_AssertLogEntryE5clearEv
                0x0011f954       0xd4
 .text._ZN16krnl_FlashVectorI19krnl_AssertLogEntryE5clearEv
                0x0011f954       0xd4 prom/krnl_asto.o
                0x0011f954                krnl_FlashVector<krnl_AssertLogEntry>::clear()

.text._ZN16krnl_FlashMemoryIhE7programEPVhPKhm
                0x0011fa28       0xb8
 .text._ZN16krnl_FlashMemoryIhE7programEPVhPKhm
                0x0011fa28       0xb8 prom/krnl_asto.o
                0x0011fa28                krnl_FlashMemory<unsigned char>::program(unsigned char volatile*, unsigned char const*, unsigned long)

.text._ZN16krnl_FlashVectorI19krnl_AssertLogEntryE8pushBackERKS0_
                0x0011fae0      0x180
 .text._ZN16krnl_FlashVectorI19krnl_AssertLogEntryE8pushBackERKS0_
                0x0011fae0      0x180 prom/krnl_asto.o
                0x0011fae0                krnl_FlashVector<krnl_AssertLogEntry>::pushBack(krnl_AssertLogEntry const&)

.text._ZN16krnl_FlashVectorI19krnl_AssertLogEntryEC1EP16krnl_FlashMemoryIhE
                0x0011fc60       0x90
 .text._ZN16krnl_FlashVectorI19krnl_AssertLogEntryEC1EP16krnl_FlashMemoryIhE
                0x0011fc60       0x90 prom/krnl_asto.o
                0x0011fc60                krnl_FlashVector<krnl_AssertLogEntry>::krnl_FlashVector(krnl_FlashMemory<unsigned char>*)

.text._ZN19krnl_WaitableObject11waitTimeoutEm
                0x0011fcf0       0xde
 .text._ZN19krnl_WaitableObject11waitTimeoutEm
                0x0011fcf0       0xde prom/krnl_stores.o
                0x0011fcf0                krnl_WaitableObject::waitTimeout(unsigned long)

.text._ZN19krnl_WaitableObject4waitEv
                0x0011fdce       0x3a
 .text._ZN19krnl_WaitableObject4waitEv
                0x0011fdce       0x3a prom/krnl_stores.o
                0x0011fdce                krnl_WaitableObject::wait()

.text._ZN12ListRegistryI28krnl_ProgrammedResetObserverE9get_firstEv
                0x0011fe08        0x8
 .text._ZN12ListRegistryI28krnl_ProgrammedResetObserverE9get_firstEv
                0x0011fe08        0x8 prom/krnl_reset.o
                0x0011fe08                ListRegistry<krnl_ProgrammedResetObserver>::get_first()

.text._ZN14krnl_SciDriver15flowCharRequestEc
                0x0011fe10       0x2e
 .text._ZN14krnl_SciDriver15flowCharRequestEc
                0x0011fe10       0x2e prom/krnl_scidrv_m.o
                0x0011fe10                krnl_SciDriver::flowCharRequest(char)

.text._ZN14krnl_SciDriverD0Ev
                0x0011fe3e       0x4a
 .text._ZN14krnl_SciDriverD0Ev
                0x0011fe3e       0x4a prom/krnl_scidrv_m.o
                0x0011fe3e                krnl_SciDriver::~krnl_SciDriver()

.text._ZN14krnl_SciDriverD1Ev
                0x0011fe88       0x40
 .text._ZN14krnl_SciDriverD1Ev
                0x0011fe88       0x40 prom/krnl_scidrv_m.o
                0x0011fe88                krnl_SciDriver::~krnl_SciDriver()

.text._ZN12ListRegistryI22krnl_RtxcClockCallbackE9get_firstEv
                0x0011fec8        0x8
 .text._ZN12ListRegistryI22krnl_RtxcClockCallbackE9get_firstEv
                0x0011fec8        0x8 prom/krnl_rclk_m.o
                0x0011fec8                ListRegistry<krnl_RtxcClockCallback>::get_first()

.text._ZN30OnBoardEepromHardwareInterface11ReadDataBitEv
                0x0011fed0        0x6
 .text._ZN30OnBoardEepromHardwareInterface11ReadDataBitEv
                0x0011fed0        0x6 prom/EEPromOnB.o
                0x0011fed0                OnBoardEepromHardwareInterface::ReadDataBit()

.text._ZN30OnBoardEepromHardwareInterface12setDirectionEb
                0x0011fed6       0x10
 .text._ZN30OnBoardEepromHardwareInterface12setDirectionEb
                0x0011fed6       0x10 prom/EEPromOnB.o
                0x0011fed6                OnBoardEepromHardwareInterface::setDirection(bool)

.text._ZN30OnBoardEepromHardwareInterface7setDataEb
                0x0011fee6       0x10
 .text._ZN30OnBoardEepromHardwareInterface7setDataEb
                0x0011fee6       0x10 prom/EEPromOnB.o
                0x0011fee6                OnBoardEepromHardwareInterface::setData(bool)

.text._ZN30OnBoardEepromHardwareInterface8setClockEb
                0x0011fef6       0x10
 .text._ZN30OnBoardEepromHardwareInterface8setClockEb
                0x0011fef6       0x10 prom/EEPromOnB.o
                0x0011fef6                OnBoardEepromHardwareInterface::setClock(bool)

.text._ZNK10__cxxabiv117__class_type_info10__do_catchEPKSt9type_infoPPvj
                0x0011ff06       0x4a
 .text._ZNK10__cxxabiv117__class_type_info10__do_catchEPKSt9type_infoPPvj
                0x0011ff06       0x4a D:\synergy\ccm_wa\tmbo\ME_ECS\HMI_devel-tmbo_bes_1211\HMI_devel\gnuc\bes\m68k-bes-rtems4.9\lib\mcpu32/libstdc++.a(class_type_info.o)
                0x0011ff06                __cxxabiv1::__class_type_info::__do_catch(std::type_info const*, void**, unsigned int) const

.text._ZNK10__cxxabiv117__class_type_info11__do_upcastEPKS0_PPv
                0x0011ff50       0x56
 .text._ZNK10__cxxabiv117__class_type_info11__do_upcastEPKS0_PPv
                0x0011ff50       0x56 D:\synergy\ccm_wa\tmbo\ME_ECS\HMI_devel-tmbo_bes_1211\HMI_devel\gnuc\bes\m68k-bes-rtems4.9\lib\mcpu32/libstdc++.a(class_type_info.o)
                0x0011ff50                __cxxabiv1::__class_type_info::__do_upcast(__cxxabiv1::__class_type_info const*, void**) const

.text._ZNK10__cxxabiv117__class_type_info20__do_find_public_srcElPKvPKS0_S2_
                0x0011ffa6       0x12
 .text._ZNK10__cxxabiv117__class_type_info20__do_find_public_srcElPKvPKS0_S2_
                0x0011ffa6       0x12 D:\synergy\ccm_wa\tmbo\ME_ECS\HMI_devel-tmbo_bes_1211\HMI_devel\gnuc\bes\m68k-bes-rtems4.9\lib\mcpu32/libstdc++.a(class_type_info.o)
                0x0011ffa6                __cxxabiv1::__class_type_info::__do_find_public_src(long, void const*, __cxxabiv1::__class_type_info const*, void const*) const

.text._ZNK10__cxxabiv117__class_type_info12__do_dyncastElNS0_10__sub_kindEPKS0_PKvS3_S5_RNS0_16__dyncast_resultE
                0x0011ffb8       0x52
 .text._ZNK10__cxxabiv117__class_type_info12__do_dyncastElNS0_10__sub_kindEPKS0_PKvS3_S5_RNS0_16__dyncast_resultE
                0x0011ffb8       0x52 D:\synergy\ccm_wa\tmbo\ME_ECS\HMI_devel-tmbo_bes_1211\HMI_devel\gnuc\bes\m68k-bes-rtems4.9\lib\mcpu32/libstdc++.a(class_type_info.o)
                0x0011ffb8                __cxxabiv1::__class_type_info::__do_dyncast(long, __cxxabiv1::__class_type_info::__sub_kind, __cxxabiv1::__class_type_info const*, void const*, __cxxabiv1::__class_type_info const*, void const*, __cxxabiv1::__class_type_info::__dyncast_result&) const

.text._ZNK10__cxxabiv117__class_type_info11__do_upcastEPKS0_PKvRNS0_15__upcast_resultE
                0x0012000a       0x34
 .text._ZNK10__cxxabiv117__class_type_info11__do_upcastEPKS0_PKvRNS0_15__upcast_resultE
                0x0012000a       0x34 D:\synergy\ccm_wa\tmbo\ME_ECS\HMI_devel-tmbo_bes_1211\HMI_devel\gnuc\bes\m68k-bes-rtems4.9\lib\mcpu32/libstdc++.a(class_type_info.o)
                0x0012000a                __cxxabiv1::__class_type_info::__do_upcast(__cxxabiv1::__class_type_info const*, void const*, __cxxabiv1::__class_type_info::__upcast_result&) const

.text._ZN10__cxxabiv117__class_type_infoD4Ev
                0x0012003e       0x36
 .text._ZN10__cxxabiv117__class_type_infoD4Ev
                0x0012003e       0x36 D:\synergy\ccm_wa\tmbo\ME_ECS\HMI_devel-tmbo_bes_1211\HMI_devel\gnuc\bes\m68k-bes-rtems4.9\lib\mcpu32/libstdc++.a(class_type_info.o)
                0x0012003e                _ZN10__cxxabiv117__class_type_infoD4Ev

.text._ZN10__cxxabiv117__class_type_infoD0Ev
                0x00120074       0x12
 .text._ZN10__cxxabiv117__class_type_infoD0Ev
                0x00120074       0x12 D:\synergy\ccm_wa\tmbo\ME_ECS\HMI_devel-tmbo_bes_1211\HMI_devel\gnuc\bes\m68k-bes-rtems4.9\lib\mcpu32/libstdc++.a(class_type_info.o)
                0x00120074                __cxxabiv1::__class_type_info::~__class_type_info()

.text._ZN10__cxxabiv117__class_type_infoD1Ev
                0x00120086       0x12
 .text._ZN10__cxxabiv117__class_type_infoD1Ev
                0x00120086       0x12 D:\synergy\ccm_wa\tmbo\ME_ECS\HMI_devel-tmbo_bes_1211\HMI_devel\gnuc\bes\m68k-bes-rtems4.9\lib\mcpu32/libstdc++.a(class_type_info.o)
                0x00120086                __cxxabiv1::__class_type_info::~__class_type_info()

.text._ZN10__cxxabiv117__class_type_infoD2Ev
                0x00120098       0x10
 .text._ZN10__cxxabiv117__class_type_infoD2Ev
                0x00120098       0x10 D:\synergy\ccm_wa\tmbo\ME_ECS\HMI_devel-tmbo_bes_1211\HMI_devel\gnuc\bes\m68k-bes-rtems4.9\lib\mcpu32/libstdc++.a(class_type_info.o)
                0x00120098                __cxxabiv1::__class_type_info::~__class_type_info()

.text._ZdaPv    0x001200a8        0x6
 .text._ZdaPv   0x001200a8        0x6 D:\synergy\ccm_wa\tmbo\ME_ECS\HMI_devel-tmbo_bes_1211\HMI_devel\gnuc\bes\m68k-bes-rtems4.9\lib\mcpu32/libstdc++.a(del_opv.o)
                0x001200a8                operator delete[](void*)

.text._Znam     0x001200ae        0x6
 .text._Znam    0x001200ae        0x6 D:\synergy\ccm_wa\tmbo\ME_ECS\HMI_devel-tmbo_bes_1211\HMI_devel\gnuc\bes\m68k-bes-rtems4.9\lib\mcpu32/libstdc++.a(new_opv.o)
                0x001200ae                operator new[](unsigned long)

.text._ZNK10__cxxabiv120__si_class_type_info20__do_find_public_srcElPKvPKNS_17__class_type_infoES2_
                0x001200b4       0x52
 .text._ZNK10__cxxabiv120__si_class_type_info20__do_find_public_srcElPKvPKNS_17__class_type_infoES2_
                0x001200b4       0x52 D:\synergy\ccm_wa\tmbo\ME_ECS\HMI_devel-tmbo_bes_1211\HMI_devel\gnuc\bes\m68k-bes-rtems4.9\lib\mcpu32/libstdc++.a(si_class_type_info.o)
                0x001200b4                __cxxabiv1::__si_class_type_info::__do_find_public_src(long, void const*, __cxxabiv1::__class_type_info const*, void const*) const

.text._ZNK10__cxxabiv120__si_class_type_info12__do_dyncastElNS_17__class_type_info10__sub_kindEPKS1_PKvS4_S6_RNS1_16__dyncast_resultE
                0x00120106       0x96
 .text._ZNK10__cxxabiv120__si_class_type_info12__do_dyncastElNS_17__class_type_info10__sub_kindEPKS1_PKvS4_S6_RNS1_16__dyncast_resultE
                0x00120106       0x96 D:\synergy\ccm_wa\tmbo\ME_ECS\HMI_devel-tmbo_bes_1211\HMI_devel\gnuc\bes\m68k-bes-rtems4.9\lib\mcpu32/libstdc++.a(si_class_type_info.o)
                0x00120106                __cxxabiv1::__si_class_type_info::__do_dyncast(long, __cxxabiv1::__class_type_info::__sub_kind, __cxxabiv1::__class_type_info const*, void const*, __cxxabiv1::__class_type_info const*, void const*, __cxxabiv1::__class_type_info::__dyncast_result&) const

.text._ZNK10__cxxabiv120__si_class_type_info11__do_upcastEPKNS_17__class_type_infoEPKvRNS1_15__upcast_resultE
                0x0012019c       0x52
 .text._ZNK10__cxxabiv120__si_class_type_info11__do_upcastEPKNS_17__class_type_infoEPKvRNS1_15__upcast_resultE
                0x0012019c       0x52 D:\synergy\ccm_wa\tmbo\ME_ECS\HMI_devel-tmbo_bes_1211\HMI_devel\gnuc\bes\m68k-bes-rtems4.9\lib\mcpu32/libstdc++.a(si_class_type_info.o)
                0x0012019c                __cxxabiv1::__si_class_type_info::__do_upcast(__cxxabiv1::__class_type_info const*, void const*, __cxxabiv1::__class_type_info::__upcast_result&) const

.text._ZN10__cxxabiv120__si_class_type_infoD4Ev
                0x001201ee       0x36
 .text._ZN10__cxxabiv120__si_class_type_infoD4Ev
                0x001201ee       0x36 D:\synergy\ccm_wa\tmbo\ME_ECS\HMI_devel-tmbo_bes_1211\HMI_devel\gnuc\bes\m68k-bes-rtems4.9\lib\mcpu32/libstdc++.a(si_class_type_info.o)
                0x001201ee                _ZN10__cxxabiv120__si_class_type_infoD4Ev

.text._ZN10__cxxabiv120__si_class_type_infoD0Ev
                0x00120224       0x12
 .text._ZN10__cxxabiv120__si_class_type_infoD0Ev
                0x00120224       0x12 D:\synergy\ccm_wa\tmbo\ME_ECS\HMI_devel-tmbo_bes_1211\HMI_devel\gnuc\bes\m68k-bes-rtems4.9\lib\mcpu32/libstdc++.a(si_class_type_info.o)
                0x00120224                __cxxabiv1::__si_class_type_info::~__si_class_type_info()

.text._ZN10__cxxabiv120__si_class_type_infoD1Ev
                0x00120236       0x12
 .text._ZN10__cxxabiv120__si_class_type_infoD1Ev
                0x00120236       0x12 D:\synergy\ccm_wa\tmbo\ME_ECS\HMI_devel-tmbo_bes_1211\HMI_devel\gnuc\bes\m68k-bes-rtems4.9\lib\mcpu32/libstdc++.a(si_class_type_info.o)
                0x00120236                __cxxabiv1::__si_class_type_info::~__si_class_type_info()

.text._ZN10__cxxabiv120__si_class_type_infoD2Ev
                0x00120248       0x10
 .text._ZN10__cxxabiv120__si_class_type_infoD2Ev
                0x00120248       0x10 D:\synergy\ccm_wa\tmbo\ME_ECS\HMI_devel-tmbo_bes_1211\HMI_devel\gnuc\bes\m68k-bes-rtems4.9\lib\mcpu32/libstdc++.a(si_class_type_info.o)
                0x00120248                __cxxabiv1::__si_class_type_info::~__si_class_type_info()

.text._ZNSt9type_infoD2Ev
                0x00120258        0xc
 .text._ZNSt9type_infoD2Ev
                0x00120258        0xc D:\synergy\ccm_wa\tmbo\ME_ECS\HMI_devel-tmbo_bes_1211\HMI_devel\gnuc\bes\m68k-bes-rtems4.9\lib\mcpu32/libstdc++.a(tinfo.o)
                0x00120258                std::type_info::~type_info()

.text._ZNSt9type_infoD1Ev
                0x00120264        0xc
 .text._ZNSt9type_infoD1Ev
                0x00120264        0xc D:\synergy\ccm_wa\tmbo\ME_ECS\HMI_devel-tmbo_bes_1211\HMI_devel\gnuc\bes\m68k-bes-rtems4.9\lib\mcpu32/libstdc++.a(tinfo.o)
                0x00120264                std::type_info::~type_info()

.text._ZNKSt9type_info14__is_pointer_pEv
                0x00120270        0x4
 .text._ZNKSt9type_info14__is_pointer_pEv
                0x00120270        0x4 D:\synergy\ccm_wa\tmbo\ME_ECS\HMI_devel-tmbo_bes_1211\HMI_devel\gnuc\bes\m68k-bes-rtems4.9\lib\mcpu32/libstdc++.a(tinfo.o)
                0x00120270                std::type_info::__is_pointer_p() const

.text._ZNKSt9type_info15__is_function_pEv
                0x00120274        0x4
 .text._ZNKSt9type_info15__is_function_pEv
                0x00120274        0x4 D:\synergy\ccm_wa\tmbo\ME_ECS\HMI_devel-tmbo_bes_1211\HMI_devel\gnuc\bes\m68k-bes-rtems4.9\lib\mcpu32/libstdc++.a(tinfo.o)
                0x00120274                std::type_info::__is_function_p() const

.text._ZNKSt9type_info10__do_catchEPKS_PPvj
                0x00120278       0x16
 .text._ZNKSt9type_info10__do_catchEPKS_PPvj
                0x00120278       0x16 D:\synergy\ccm_wa\tmbo\ME_ECS\HMI_devel-tmbo_bes_1211\HMI_devel\gnuc\bes\m68k-bes-rtems4.9\lib\mcpu32/libstdc++.a(tinfo.o)
                0x00120278                std::type_info::__do_catch(std::type_info const*, void**, unsigned int) const

.text._ZNKSt9type_info11__do_upcastEPKN10__cxxabiv117__class_type_infoEPPv
                0x0012028e        0x4
 .text._ZNKSt9type_info11__do_upcastEPKN10__cxxabiv117__class_type_infoEPPv
                0x0012028e        0x4 D:\synergy\ccm_wa\tmbo\ME_ECS\HMI_devel-tmbo_bes_1211\HMI_devel\gnuc\bes\m68k-bes-rtems4.9\lib\mcpu32/libstdc++.a(tinfo.o)
                0x0012028e                std::type_info::__do_upcast(__cxxabiv1::__class_type_info const*, void**) const

.text._ZNSt9type_infoD0Ev
                0x00120292       0x10
 .text._ZNSt9type_infoD0Ev
                0x00120292       0x10 D:\synergy\ccm_wa\tmbo\ME_ECS\HMI_devel-tmbo_bes_1211\HMI_devel\gnuc\bes\m68k-bes-rtems4.9\lib\mcpu32/libstdc++.a(tinfo.o)
                0x00120292                std::type_info::~type_info()

.text._ZNK10__cxxabiv121__vmi_class_type_info20__do_find_public_srcElPKvPKNS_17__class_type_infoES2_
                0x001202a2       0x94
 .text._ZNK10__cxxabiv121__vmi_class_type_info20__do_find_public_srcElPKvPKNS_17__class_type_infoES2_
                0x001202a2       0x94 D:\synergy\ccm_wa\tmbo\ME_ECS\HMI_devel-tmbo_bes_1211\HMI_devel\gnuc\bes\m68k-bes-rtems4.9\lib\mcpu32/libstdc++.a(vmi_class_type_info.o)
                0x001202a2                __cxxabiv1::__vmi_class_type_info::__do_find_public_src(long, void const*, __cxxabiv1::__class_type_info const*, void const*) const

.text._ZNK10__cxxabiv121__vmi_class_type_info12__do_dyncastElNS_17__class_type_info10__sub_kindEPKS1_PKvS4_S6_RNS1_16__dyncast_resultE
                0x00120336      0x318
 .text._ZNK10__cxxabiv121__vmi_class_type_info12__do_dyncastElNS_17__class_type_info10__sub_kindEPKS1_PKvS4_S6_RNS1_16__dyncast_resultE
                0x00120336      0x318 D:\synergy\ccm_wa\tmbo\ME_ECS\HMI_devel-tmbo_bes_1211\HMI_devel\gnuc\bes\m68k-bes-rtems4.9\lib\mcpu32/libstdc++.a(vmi_class_type_info.o)
                0x00120336                __cxxabiv1::__vmi_class_type_info::__do_dyncast(long, __cxxabiv1::__class_type_info::__sub_kind, __cxxabiv1::__class_type_info const*, void const*, __cxxabiv1::__class_type_info const*, void const*, __cxxabiv1::__class_type_info::__dyncast_result&) const

.text._ZNK10__cxxabiv121__vmi_class_type_info11__do_upcastEPKNS_17__class_type_infoEPKvRNS1_15__upcast_resultE
                0x0012064e      0x18c
 .text._ZNK10__cxxabiv121__vmi_class_type_info11__do_upcastEPKNS_17__class_type_infoEPKvRNS1_15__upcast_resultE
                0x0012064e      0x18c D:\synergy\ccm_wa\tmbo\ME_ECS\HMI_devel-tmbo_bes_1211\HMI_devel\gnuc\bes\m68k-bes-rtems4.9\lib\mcpu32/libstdc++.a(vmi_class_type_info.o)
                0x0012064e                __cxxabiv1::__vmi_class_type_info::__do_upcast(__cxxabiv1::__class_type_info const*, void const*, __cxxabiv1::__class_type_info::__upcast_result&) const

.text._ZN10__cxxabiv121__vmi_class_type_infoD4Ev
                0x001207da       0x36
 .text._ZN10__cxxabiv121__vmi_class_type_infoD4Ev
                0x001207da       0x36 D:\synergy\ccm_wa\tmbo\ME_ECS\HMI_devel-tmbo_bes_1211\HMI_devel\gnuc\bes\m68k-bes-rtems4.9\lib\mcpu32/libstdc++.a(vmi_class_type_info.o)
                0x001207da                _ZN10__cxxabiv121__vmi_class_type_infoD4Ev

.text._ZN10__cxxabiv121__vmi_class_type_infoD0Ev
                0x00120810       0x12
 .text._ZN10__cxxabiv121__vmi_class_type_infoD0Ev
                0x00120810       0x12 D:\synergy\ccm_wa\tmbo\ME_ECS\HMI_devel-tmbo_bes_1211\HMI_devel\gnuc\bes\m68k-bes-rtems4.9\lib\mcpu32/libstdc++.a(vmi_class_type_info.o)
                0x00120810                __cxxabiv1::__vmi_class_type_info::~__vmi_class_type_info()

.text._ZN10__cxxabiv121__vmi_class_type_infoD1Ev
                0x00120822       0x12
 .text._ZN10__cxxabiv121__vmi_class_type_infoD1Ev
                0x00120822       0x12 D:\synergy\ccm_wa\tmbo\ME_ECS\HMI_devel-tmbo_bes_1211\HMI_devel\gnuc\bes\m68k-bes-rtems4.9\lib\mcpu32/libstdc++.a(vmi_class_type_info.o)
                0x00120822                __cxxabiv1::__vmi_class_type_info::~__vmi_class_type_info()

.text._ZN10__cxxabiv121__vmi_class_type_infoD2Ev
                0x00120834       0x10
 .text._ZN10__cxxabiv121__vmi_class_type_infoD2Ev
                0x00120834       0x10 D:\synergy\ccm_wa\tmbo\ME_ECS\HMI_devel-tmbo_bes_1211\HMI_devel\gnuc\bes\m68k-bes-rtems4.9\lib\mcpu32/libstdc++.a(vmi_class_type_info.o)
                0x00120834                __cxxabiv1::__vmi_class_type_info::~__vmi_class_type_info()
                0x00120844                . = ALIGN (0x2)

.strings
 *(.string)
                0x00120844                . = ALIGN (0x2)

.rodata         0x00120844     0x420c
 *(.rodata*)
 .rodata.str1.1
                0x00120844      0x11b prom/testsoftfloat.o
 *fill*         0x0012095f        0x1 00
 .rodata        0x00120960      0x100 prom/testsoftfloat.o
 .rodata.str1.1
                0x00120a60       0x49 prom/runsf.o
 *fill*         0x00120aa9        0x1 00
 .rodata._ZZ24krnl_convertFromMsToTickmE21MAXIMUM_MILLI_SECONDS
                0x00120aaa        0x4 prom/runsf.o
                0x00120aaa                krnl_convertFromMsToTick(unsigned long)::MAXIMUM_MILLI_SECONDS
 .rodata.str1.1
                0x00120aae       0x7a prom/rtl.o
                                 0x84 (size before relaxing)
 .rodata.str1.1
                0x00120b28       0xe5 prom/new.o
                                 0xeb (size before relaxing)
 *fill*         0x00120c0d        0x1 00
 .rodata        0x00120c0e      0x200 prom/crc.o
 *fill*         0x00120e0e        0x2 00
 .rodata._ZTV10flsh_Block
                0x00120e10       0x1c prom/flsh_device.o
                0x00120e10                vtable for flsh_Block
 .rodata._ZTV11flsh_Device
                0x00120e2c       0x1c prom/flsh_device.o
                0x00120e2c                vtable for flsh_Device
 .rodata._ZTS10flsh_Block
                0x00120e48        0xd prom/flsh_device.o
                0x00120e48                typeinfo name for flsh_Block
 *fill*         0x00120e55        0x1 00
 .rodata._ZTI10flsh_Block
                0x00120e56        0xc prom/flsh_device.o
                0x00120e56                typeinfo for flsh_Block
 .rodata._ZTS11flsh_Device
                0x00120e62        0xe prom/flsh_device.o
                0x00120e62                typeinfo name for flsh_Device
 .rodata._ZTI11flsh_Device
                0x00120e70        0xc prom/flsh_device.o
                0x00120e70                typeinfo for flsh_Device
 .rodata._ZTV21flsh_DeviceAm29F800BB
                0x00120e7c       0x1c prom/flsh_device_amd.o
                0x00120e7c                vtable for flsh_DeviceAm29F800BB
 .rodata._ZTV15flsh_BlockAm29F
                0x00120e98       0x1c prom/flsh_device_amd.o
                0x00120e98                vtable for flsh_BlockAm29F
 .rodata._ZTV16flsh_DeviceAm29F
                0x00120eb4       0x1c prom/flsh_device_amd.o
                0x00120eb4                vtable for flsh_DeviceAm29F
 .rodata._ZTS21flsh_DeviceAm29F800BB
                0x00120ed0       0x18 prom/flsh_device_amd.o
                0x00120ed0                typeinfo name for flsh_DeviceAm29F800BB
 .rodata._ZTI21flsh_DeviceAm29F800BB
                0x00120ee8        0xc prom/flsh_device_amd.o
                0x00120ee8                typeinfo for flsh_DeviceAm29F800BB
 .rodata._ZTS15flsh_BlockAm29F
                0x00120ef4       0x12 prom/flsh_device_amd.o
                0x00120ef4                typeinfo name for flsh_BlockAm29F
 .rodata._ZTI15flsh_BlockAm29F
                0x00120f06        0xc prom/flsh_device_amd.o
                0x00120f06                typeinfo for flsh_BlockAm29F
 .rodata._ZTS16flsh_DeviceAm29F
                0x00120f12       0x13 prom/flsh_device_amd.o
                0x00120f12                typeinfo name for flsh_DeviceAm29F
 *fill*         0x00120f25        0x1 00
 .rodata._ZTI16flsh_DeviceAm29F
                0x00120f26        0xc prom/flsh_device_amd.o
                0x00120f26                typeinfo for flsh_DeviceAm29F
 *fill*         0x00120f32        0x2 00
 .rodata._ZTV20flsh_DeviceI28F800B5
                0x00120f34       0x1c prom/flsh_device_intel.o
                0x00120f34                vtable for flsh_DeviceI28F800B5
 .rodata._ZTV14flsh_BlockI28F
                0x00120f50       0x1c prom/flsh_device_intel.o
                0x00120f50                vtable for flsh_BlockI28F
 .rodata._ZTV15flsh_DeviceI28F
                0x00120f6c       0x1c prom/flsh_device_intel.o
                0x00120f6c                vtable for flsh_DeviceI28F
 .rodata._ZTS20flsh_DeviceI28F800B5
                0x00120f88       0x17 prom/flsh_device_intel.o
                0x00120f88                typeinfo name for flsh_DeviceI28F800B5
 *fill*         0x00120f9f        0x1 00
 .rodata._ZTI20flsh_DeviceI28F800B5
                0x00120fa0        0xc prom/flsh_device_intel.o
                0x00120fa0                typeinfo for flsh_DeviceI28F800B5
 .rodata._ZTS14flsh_BlockI28F
                0x00120fac       0x11 prom/flsh_device_intel.o
                0x00120fac                typeinfo name for flsh_BlockI28F
 *fill*         0x00120fbd        0x1 00
 .rodata._ZTI14flsh_BlockI28F
                0x00120fbe        0xc prom/flsh_device_intel.o
                0x00120fbe                typeinfo for flsh_BlockI28F
 .rodata._ZTS15flsh_DeviceI28F
                0x00120fca       0x12 prom/flsh_device_intel.o
                0x00120fca                typeinfo name for flsh_DeviceI28F
 .rodata._ZTI15flsh_DeviceI28F
                0x00120fdc        0xc prom/flsh_device_intel.o
                0x00120fdc                typeinfo for flsh_DeviceI28F
 .rodata._ZTV21flsh_DeviceRamUniform
                0x00120fe8       0x1c prom/flsh_device_ram.o
                0x00120fe8                vtable for flsh_DeviceRamUniform
 .rodata._ZTV13flsh_BlockRam
                0x00121004       0x1c prom/flsh_device_ram.o
                0x00121004                vtable for flsh_BlockRam
 .rodata._ZTV14flsh_DeviceRam
                0x00121020       0x1c prom/flsh_device_ram.o
                0x00121020                vtable for flsh_DeviceRam
 .rodata._ZTS21flsh_DeviceRamUniform
                0x0012103c       0x18 prom/flsh_device_ram.o
                0x0012103c                typeinfo name for flsh_DeviceRamUniform
 .rodata._ZTI21flsh_DeviceRamUniform
                0x00121054        0xc prom/flsh_device_ram.o
                0x00121054                typeinfo for flsh_DeviceRamUniform
 .rodata._ZTS13flsh_BlockRam
                0x00121060       0x10 prom/flsh_device_ram.o
                0x00121060                typeinfo name for flsh_BlockRam
 .rodata._ZTI13flsh_BlockRam
                0x00121070        0xc prom/flsh_device_ram.o
                0x00121070                typeinfo for flsh_BlockRam
 .rodata._ZTS14flsh_DeviceRam
                0x0012107c       0x11 prom/flsh_device_ram.o
                0x0012107c                typeinfo name for flsh_DeviceRam
 *fill*         0x0012108d        0x1 00
 .rodata._ZTI14flsh_DeviceRam
                0x0012108e        0xc prom/flsh_device_ram.o
                0x0012108e                typeinfo for flsh_DeviceRam
 .rodata.str1.1
                0x0012109a      0x13e prom/flsh_manager.o
                                0x13f (size before relaxing)
 .rodata._ZTV11flsh_Memory
                0x001211d8       0x1c prom/flsh_memory.o
                0x001211d8                vtable for flsh_Memory
 .rodata._ZTS11flsh_Memory
                0x001211f4        0xe prom/flsh_memory.o
                0x001211f4                typeinfo name for flsh_Memory
 .rodata._ZTI11flsh_Memory
                0x00121202        0x8 prom/flsh_memory.o
                0x00121202                typeinfo for flsh_Memory
 .rodata.str1.1
                0x0012120a       0xca prom/krnl_astd.o
                                 0xcb (size before relaxing)
 .rodata._ZTV20krnl_SingleTaskTimer
                0x001212d4       0x10 prom/krnl_astd.o
                0x001212d4                vtable for krnl_SingleTaskTimer
 .rodata._ZTS20krnl_SingleTaskTimer
                0x001212e4       0x17 prom/krnl_astd.o
                0x001212e4                typeinfo name for krnl_SingleTaskTimer
 *fill*         0x001212fb        0x1 00
 .rodata._ZTI20krnl_SingleTaskTimer
                0x001212fc        0xc prom/krnl_astd.o
                0x001212fc                typeinfo for krnl_SingleTaskTimer
 .rodata.str1.1
                0x00121308       0x75 prom/krnl_atst.o
                                 0x87 (size before relaxing)
 *fill*         0x0012137d        0x3 00
 .rodata._ZTV23krnl_TestableAssertions
                0x00121380        0xc prom/krnl_atst.o
                0x00121380                vtable for krnl_TestableAssertions
 .rodata._ZTS23krnl_TestableAssertions
                0x0012138c       0x1a prom/krnl_atst.o
                0x0012138c                typeinfo name for krnl_TestableAssertions
 .rodata._ZTI23krnl_TestableAssertions
                0x001213a6        0xc prom/krnl_atst.o
                0x001213a6                typeinfo for krnl_TestableAssertions
 .rodata._ZTI33krnl_SimpleTestableAssertionsImpl
                0x001213b2        0x8 prom/krnl_atst.o
                0x001213b2                typeinfo for krnl_SimpleTestableAssertionsImpl
 .rodata._ZTS33krnl_SimpleTestableAssertionsImpl
                0x001213ba       0x24 prom/krnl_atst.o
                0x001213ba                typeinfo name for krnl_SimpleTestableAssertionsImpl
 *fill*         0x001213de        0x2 00
 .rodata._ZTV33krnl_SimpleTestableAssertionsImpl
                0x001213e0        0xc prom/krnl_atst.o
                0x001213e0                vtable for krnl_SimpleTestableAssertionsImpl
 .rodata.str1.1
                0x001213ec      0x18e prom/krnl_alog.o
                                0x1b1 (size before relaxing)
 *fill*         0x0012157a        0x2 00
 .rodata._ZTV22krnl_AssertLogIterator
                0x0012157c       0x10 prom/krnl_alog.o
                0x0012157c                vtable for krnl_AssertLogIterator
 .rodata._ZTV14krnl_AssertLog
                0x0012158c       0x1c prom/krnl_alog.o
                0x0012158c                vtable for krnl_AssertLog
 .rodata._ZTV27krnl_AssertLogResetObserver
                0x001215a8       0x14 prom/krnl_alog.o
                0x001215a8                vtable for krnl_AssertLogResetObserver
 .rodata._ZTS27krnl_AssertLogResetObserver
                0x001215bc       0x1e prom/krnl_alog.o
                0x001215bc                typeinfo name for krnl_AssertLogResetObserver
 .rodata._ZTI27krnl_AssertLogResetObserver
                0x001215da        0xc prom/krnl_alog.o
                0x001215da                typeinfo for krnl_AssertLogResetObserver
 .rodata._ZTS22krnl_AssertLogIterator
                0x001215e6       0x19 prom/krnl_alog.o
                0x001215e6                typeinfo name for krnl_AssertLogIterator
 *fill*         0x001215ff        0x1 00
 .rodata._ZTI22krnl_AssertLogIterator
                0x00121600        0xc prom/krnl_alog.o
                0x00121600                typeinfo for krnl_AssertLogIterator
 .rodata._ZTS14krnl_AssertLog
                0x0012160c       0x11 prom/krnl_alog.o
                0x0012160c                typeinfo name for krnl_AssertLog
 *fill*         0x0012161d        0x1 00
 .rodata._ZTI14krnl_AssertLog
                0x0012161e        0xc prom/krnl_alog.o
                0x0012161e                typeinfo for krnl_AssertLog
 .rodata._ZTI28krnl_ProgrammedResetObserver
                0x0012162a        0xc prom/krnl_alog.o
                0x0012162a                typeinfo for krnl_ProgrammedResetObserver
 .rodata._ZTS28krnl_ProgrammedResetObserver
                0x00121636       0x1f prom/krnl_alog.o
                0x00121636                typeinfo name for krnl_ProgrammedResetObserver
 *fill*         0x00121655        0x1 00
 .rodata._ZTI12ListRegistryI28krnl_ProgrammedResetObserverE
                0x00121656        0x8 prom/krnl_alog.o
                0x00121656                typeinfo for ListRegistry<krnl_ProgrammedResetObserver>
 .rodata._ZTS12ListRegistryI28krnl_ProgrammedResetObserverE
                0x0012165e       0x2f prom/krnl_alog.o
                0x0012165e                typeinfo name for ListRegistry<krnl_ProgrammedResetObserver>
 *fill*         0x0012168d        0x3 00
 .rodata._ZTV28krnl_ProgrammedResetObserver
                0x00121690       0x14 prom/krnl_alog.o
                0x00121690                vtable for krnl_ProgrammedResetObserver
 .rodata._ZTV12ListRegistryI28krnl_ProgrammedResetObserverE
                0x001216a4        0xc prom/krnl_alog.o
                0x001216a4                vtable for ListRegistry<krnl_ProgrammedResetObserver>
 .rodata        0x001216b0       0xa1 prom/krnl_aseq.o
 .rodata.str1.1
                0x00121751      0x1a0 prom/krnl_asto.o
                                0x20a (size before relaxing)
 *fill*         0x001218f1        0x3 00
 .rodata._ZTV29krnl_AssertLogStorageIterator
                0x001218f4       0x10 prom/krnl_asto.o
                0x001218f4                vtable for krnl_AssertLogStorageIterator
 .rodata._ZTS29krnl_AssertLogStorageIterator
                0x00121904       0x20 prom/krnl_asto.o
                0x00121904                typeinfo name for krnl_AssertLogStorageIterator
 .rodata._ZTI29krnl_AssertLogStorageIterator
                0x00121924        0x8 prom/krnl_asto.o
                0x00121924                typeinfo for krnl_AssertLogStorageIterator
 .rodata        0x0012192c       0x14 prom/krnl_prmtst.o
                0x0012192c                krnl_PromTest::LENGTH_CRC_POSITION
 .rodata.str1.1
                0x00121940        0x9 prom/krnl_xwdh.o
                                0x109 (size before relaxing)
 *fill*         0x00121949        0x3 00
 .rodata._ZTV16ExtWdHandlerTask
                0x0012194c       0x1c prom/krnl_xwdh.o
                0x0012194c                vtable for ExtWdHandlerTask
 .rodata._ZTS16ExtWdHandlerTask
                0x00121968       0x13 prom/krnl_xwdh.o
                0x00121968                typeinfo name for ExtWdHandlerTask
 *fill*         0x0012197b        0x1 00
 .rodata._ZTI16ExtWdHandlerTask
                0x0012197c        0xc prom/krnl_xwdh.o
                0x0012197c                typeinfo for ExtWdHandlerTask
 .rodata.str1.1
                0x00121988       0x84 prom/krnl_sngltn.o
                                 0x93 (size before relaxing)
 .rodata        0x00121a0c        0x4 prom/krnl_clkfrq.o
                0x00121a0c                CPU_CLOCK_FREQUENCY
 .rodata.str1.1
                0x00000000       0x84 prom/krnl_evt.o
                                  0x2 (size before relaxing)
 .rodata.str1.1
                0x00121a10      0x1fe prom/krnl_xcptin.o
                                0x201 (size before relaxing)
 .rodata        0x00121c0e        0x6 prom/krnl_flmem.o
                0x00121c10                KRNL_FLASH_DELAY_COUNT
                0x00121c0e                krnl_FlashMemory<unsigned char>::s_width
                0x00121c0f                krnl_FlashMemory<unsigned short>::s_width
 .rodata.str1.1
                0x00121c14      0x134 prom/krnl_flpar.o
                                0x157 (size before relaxing)
 .rodata        0x00121d48       0x14 prom/krnl_flpar.o
 .rodata.str1.1
                0x00121d5c       0xf3 prom/krnl_flstr.o
                                0x15d (size before relaxing)
 *fill*         0x00121e4f        0x1 00
 .rodata._ZTV22krnl_FlashOutputStream
                0x00121e50       0x10 prom/krnl_flstr.o
                0x00121e50                vtable for krnl_FlashOutputStream
 .rodata._ZTV21krnl_FlashInputStream
                0x00121e60       0x10 prom/krnl_flstr.o
                0x00121e60                vtable for krnl_FlashInputStream
 .rodata._ZTV12krnl_IosBase
                0x00121e70       0x10 prom/krnl_flstr.o
                0x00121e70                vtable for krnl_IosBase
 .rodata._ZTS22krnl_FlashOutputStream
                0x00121e80       0x19 prom/krnl_flstr.o
                0x00121e80                typeinfo name for krnl_FlashOutputStream
 *fill*         0x00121e99        0x1 00
 .rodata._ZTI22krnl_FlashOutputStream
                0x00121e9a        0xc prom/krnl_flstr.o
                0x00121e9a                typeinfo for krnl_FlashOutputStream
 .rodata._ZTS21krnl_FlashInputStream
                0x00121ea6       0x18 prom/krnl_flstr.o
                0x00121ea6                typeinfo name for krnl_FlashInputStream
 .rodata._ZTI21krnl_FlashInputStream
                0x00121ebe        0xc prom/krnl_flstr.o
                0x00121ebe                typeinfo for krnl_FlashInputStream
 .rodata._ZTS12krnl_IosBase
                0x00121eca        0xf prom/krnl_flstr.o
                0x00121eca                typeinfo name for krnl_IosBase
 *fill*         0x00121ed9        0x1 00
 .rodata._ZTI12krnl_IosBase
                0x00121eda        0x8 prom/krnl_flstr.o
                0x00121eda                typeinfo for krnl_IosBase
 .rodata.str1.1
                0x00121ee2      0x17c prom/krnl_stores.o
                                0x202 (size before relaxing)
 .rodata.str1.1
                0x0012205e       0xaa prom/krnl_rtc.o
 .rodata.str1.1
                0x00122108       0x68 prom/krnl_nclk_r.o
                                 0x8b (size before relaxing)
 .rodata.str1.1
                0x00122170       0x69 prom/krnl_ntime_r.o
                                 0x8c (size before relaxing)
 .rodata.str1.1
                0x001221d9      0x182 prom/krnl_crttsk.o
                                0x353 (size before relaxing)
 *fill*         0x0012235b        0x1 00
 .rodata._ZTV21krnl_TimeCriticalTask
                0x0012235c       0x2c prom/krnl_crttsk.o
                0x0012235c                vtable for krnl_TimeCriticalTask
 .rodata._ZTV28krnl_TimeCriticalTaskMonitor
                0x00122388       0x1c prom/krnl_crttsk.o
                0x00122388                vtable for krnl_TimeCriticalTaskMonitor
 .rodata._ZTV25krnl_TimeCriticalTaskBase
                0x001223a4       0x10 prom/krnl_crttsk.o
                0x001223a4                vtable for krnl_TimeCriticalTaskBase
 .rodata._ZTS21krnl_TimeCriticalTask
                0x001223b4       0x18 prom/krnl_crttsk.o
                0x001223b4                typeinfo name for krnl_TimeCriticalTask
 .rodata._ZTI21krnl_TimeCriticalTask
                0x001223cc       0x20 prom/krnl_crttsk.o
                0x001223cc                typeinfo for krnl_TimeCriticalTask
 .rodata._ZTS28krnl_TimeCriticalTaskMonitor
                0x001223ec       0x1f prom/krnl_crttsk.o
                0x001223ec                typeinfo name for krnl_TimeCriticalTaskMonitor
 *fill*         0x0012240b        0x1 00
 .rodata._ZTI28krnl_TimeCriticalTaskMonitor
                0x0012240c        0xc prom/krnl_crttsk.o
                0x0012240c                typeinfo for krnl_TimeCriticalTaskMonitor
 .rodata._ZTS25krnl_TimeCriticalTaskBase
                0x00122418       0x1c prom/krnl_crttsk.o
                0x00122418                typeinfo name for krnl_TimeCriticalTaskBase
 .rodata._ZTI25krnl_TimeCriticalTaskBase
                0x00122434        0x8 prom/krnl_crttsk.o
                0x00122434                typeinfo for krnl_TimeCriticalTaskBase
 .rodata.str1.1
                0x0012243c       0x62 prom/krnl_otmr.o
                                 0x69 (size before relaxing)
 *fill*         0x0012249e        0x2 00
 .rodata._ZTV15krnl_SimpleTask
                0x001224a0       0x1c prom/krnl_stask.o
                0x001224a0                vtable for krnl_SimpleTask
 .rodata._ZTS15krnl_SimpleTask
                0x001224bc       0x12 prom/krnl_stask.o
                0x001224bc                typeinfo name for krnl_SimpleTask
 .rodata._ZTI15krnl_SimpleTask
                0x001224ce        0xc prom/krnl_stask.o
                0x001224ce                typeinfo for krnl_SimpleTask
 .rodata.str1.1
                0x001224da       0x9e prom/krnl_crtreg_r.o
 .rodata.str1.1
                0x00122578       0xa0 prom/krnl_queue_r.o
                                0x14f (size before relaxing)
 .rodata._ZTV14krnl_RtxcQueue
                0x00122618       0x10 prom/krnl_queue_r.o
                0x00122618                vtable for krnl_RtxcQueue
 .rodata._ZTS14krnl_RtxcQueue
                0x00122628       0x11 prom/krnl_queue_r.o
                0x00122628                typeinfo name for krnl_RtxcQueue
 *fill*         0x00122639        0x1 00
 .rodata._ZTI14krnl_RtxcQueue
                0x0012263a        0xc prom/krnl_queue_r.o
                0x0012263a                typeinfo for krnl_RtxcQueue
 .rodata.str1.1
                0x00122646       0x9c prom/krnl_res_r.o
                                 0xa3 (size before relaxing)
 *fill*         0x001226e2        0x2 00
 .rodata._ZTV13krnl_Resource
                0x001226e4       0x10 prom/krnl_res_r.o
                0x001226e4                vtable for krnl_Resource
 .rodata._ZTS13krnl_Resource
                0x001226f4       0x10 prom/krnl_res_r.o
                0x001226f4                typeinfo name for krnl_Resource
 .rodata._ZTI13krnl_Resource
                0x00122704        0x8 prom/krnl_res_r.o
                0x00122704                typeinfo for krnl_Resource
 .rodata.str1.1
                0x0012270c       0xa2 prom/krnl_sema_r.o
                                 0xa9 (size before relaxing)
 *fill*         0x001227ae        0x2 00
 .rodata._ZTV14krnl_Semaphore
                0x001227b0       0x10 prom/krnl_sema_r.o
                0x001227b0                vtable for krnl_Semaphore
 .rodata._ZTS14krnl_Semaphore
                0x001227c0       0x11 prom/krnl_sema_r.o
                0x001227c0                typeinfo name for krnl_Semaphore
 *fill*         0x001227d1        0x1 00
 .rodata._ZTI14krnl_Semaphore
                0x001227d2        0xc prom/krnl_sema_r.o
                0x001227d2                typeinfo for krnl_Semaphore
 .rodata.str1.1
                0x001227de      0x117 prom/krnl_task_r.o
                                0x11e (size before relaxing)
 *fill*         0x001228f5        0x3 00
 .rodata._ZTV9krnl_Task
                0x001228f8       0x1c prom/krnl_task_r.o
                0x001228f8                vtable for krnl_Task
 .rodata._ZTS9krnl_Task
                0x00122914        0xb prom/krnl_task_r.o
                0x00122914                typeinfo name for krnl_Task
 *fill*         0x0012291f        0x1 00
 .rodata._ZTI9krnl_Task
                0x00122920        0x8 prom/krnl_task_r.o
                0x00122920                typeinfo for krnl_Task
 .rodata        0x00122928        0xc prom/krnl_task_r.o
 .rodata.str1.1
                0x00122934        0x7 prom/krnl_taskid_r.o
 .rodata.str1.1
                0x0012293b       0x80 prom/krnl_wait_r.o
                                 0x87 (size before relaxing)
 *fill*         0x001229bb        0x1 00
 .rodata._ZTV19krnl_WaitableObject
                0x001229bc       0x10 prom/krnl_wait_r.o
                0x001229bc                vtable for krnl_WaitableObject
 .rodata._ZTS19krnl_WaitableObject
                0x001229cc       0x16 prom/krnl_wait_r.o
                0x001229cc                typeinfo name for krnl_WaitableObject
 .rodata._ZTI19krnl_WaitableObject
                0x001229e2        0x8 prom/krnl_wait_r.o
                0x001229e2                typeinfo for krnl_WaitableObject
 .rodata.str1.1
                0x001229ea       0xad prom/krnl_reset.o
                                 0xc6 (size before relaxing)
 *fill*         0x00122a97        0x1 00
 .rodata        0x00122a98        0xc prom/cclock.o
                0x00122a9c                clktick
                0x00122a98                ntmrs
                0x00122aa0                clkrate
 .rodata        0x00122aa4       0x14 prom/cmbox.o
                0x00122aa6                mboxname
                0x00122aa4                nmboxes
 .rodata        0x00122ab8       0x19 prom/cpart.o
                0x00122ac8                partname
                0x00122aba                dnparts
                0x00122ab8                nparts
                0x00122abc                pkheader
 *fill*         0x00122ad1        0x1 00
 .rodata        0x00122ad2        0x4 prom/csema.o
                0x00122ad2                siglistsize
 .rodata        0x00122ad6       0x24 prom/ctask.o
                0x00122ad8                dntasks
                0x00122ade                rtxktcb
                0x00122ada                startls
                0x00122ad6                ntasks
 .rodata.str1.1
                0x00122afa      0xa6e prom/rtxcbug.o
                                0xab3 (size before relaxing)
 .rodata        0x00123568        0x4 prom/rtxcbug.o
 .rodata.str1.1
                0x0012356c       0xc6 prom/rtxcapi.o
                                 0xc7 (size before relaxing)
 .rodata.str1.1
                0x00123632        0xa prom/krnl_sastd.o
                                 0x32 (size before relaxing)
 .rodata        0x0012363c        0x4 prom/krnl_sastd.o
                0x0012363c                krnl_SimpleAssertions__TASK_NAME
 .rodata        0x00123640        0x8 prom/krnl_sasto.o
                0x00123640                krnl_SimpleAssertStorage::CAPACITY
 .rodata._ZTV40krnl_InitialSimpleTestableAssertionsImpl
                0x00123648        0xc prom/krnl_satst.o
                0x00123648                vtable for krnl_InitialSimpleTestableAssertionsImpl
 .rodata._ZTS40krnl_InitialSimpleTestableAssertionsImpl
                0x00123654       0x2b prom/krnl_satst.o
                0x00123654                typeinfo name for krnl_InitialSimpleTestableAssertionsImpl
 *fill*         0x0012367f        0x1 00
 .rodata._ZTI40krnl_InitialSimpleTestableAssertionsImpl
                0x00123680        0xc prom/krnl_satst.o
                0x00123680                typeinfo for krnl_InitialSimpleTestableAssertionsImpl
 .rodata.str1.1
                0x0012368c       0xa8 prom/krnl_scires.o
                                 0xaf (size before relaxing)
 .rodata._ZTV20krnl_SciResourceUser
                0x00123734       0x18 prom/krnl_scires.o
                0x00123734                vtable for krnl_SciResourceUser
 .rodata._ZTS20krnl_SciResourceUser
                0x0012374c       0x17 prom/krnl_scires.o
                0x0012374c                typeinfo name for krnl_SciResourceUser
 *fill*         0x00123763        0x1 00
 .rodata._ZTI20krnl_SciResourceUser
                0x00123764        0x8 prom/krnl_scires.o
                0x00123764                typeinfo for krnl_SciResourceUser
 .rodata.str1.1
                0x0012376c      0x104 prom/krnl_scidrv_m.o
                                0x260 (size before relaxing)
 .rodata._ZTV14krnl_SciDriver
                0x00123870       0x10 prom/krnl_scidrv_m.o
                0x00123870                vtable for krnl_SciDriver
 .rodata._ZTI14krnl_SciDriver
                0x00123880        0xc prom/krnl_scidrv_m.o
                0x00123880                typeinfo for krnl_SciDriver
 .rodata._ZTS14krnl_SciDriver
                0x0012388c       0x11 prom/krnl_scidrv_m.o
                0x0012388c                typeinfo name for krnl_SciDriver
 .rodata.str1.1
                0x0012389d       0xb9 prom/krnl_init_m.o
                                 0xbd (size before relaxing)
 .rodata.str1.1
                0x00123956      0x15b prom/krnl_unex_m.o
                                0x15c (size before relaxing)
 .rodata.str1.1
                0x00123ab1      0x112 prom/krnl_trcchnl.o
                                0x20d (size before relaxing)
 *fill*         0x00123bc3        0x1 00
 .rodata._ZTV21krnl_TraceChannelImpl
                0x00123bc4       0x3c prom/krnl_trcchnl.o
                0x00123bc4                vtable for krnl_TraceChannelImpl
 .rodata._ZTS21krnl_TraceChannelImpl
                0x00123c00       0x18 prom/krnl_trcchnl.o
                0x00123c00                typeinfo name for krnl_TraceChannelImpl
 .rodata._ZTI21krnl_TraceChannelImpl
                0x00123c18       0x20 prom/krnl_trcchnl.o
                0x00123c18                typeinfo for krnl_TraceChannelImpl
 .rodata.str1.1
                0x00123c38      0x12c prom/entry_hooks.o
                                0x136 (size before relaxing)
 .rodata._ZTVZ4mainE15MyConfigAdapter
                0x00123d64        0xc prom/cppmain.o
                0x00123d64                vtable for main::MyConfigAdapter
 .rodata._ZTIZ4mainE15MyConfigAdapter
                0x00123d70        0xc prom/cppmain.o
                0x00123d70                typeinfo for main::MyConfigAdapter
 .rodata._ZTSZ4mainE15MyConfigAdapter
                0x00123d7c       0x19 prom/cppmain.o
                0x00123d7c                typeinfo name for main::MyConfigAdapter
 *fill*         0x00123d95        0x1 00
 .rodata._ZTI18krnl_ConfigAdapter
                0x00123d96        0x8 prom/cppmain.o
                0x00123d96                typeinfo for krnl_ConfigAdapter
 .rodata._ZTS18krnl_ConfigAdapter
                0x00123d9e       0x15 prom/cppmain.o
                0x00123d9e                typeinfo name for krnl_ConfigAdapter
 *fill*         0x00123db3        0x1 00
 .rodata._ZTV18krnl_ConfigAdapter
                0x00123db4        0xc prom/cppmain.o
                0x00123db4                vtable for krnl_ConfigAdapter
 .rodata._ZTVZ4mainE12MyHalAdapter
                0x00123dc0        0xc prom/cppmain.o
                0x00123dc0                vtable for main::MyHalAdapter
 .rodata._ZTIZ4mainE12MyHalAdapter
                0x00123dcc        0xc prom/cppmain.o
                0x00123dcc                typeinfo for main::MyHalAdapter
 .rodata._ZTSZ4mainE12MyHalAdapter
                0x00123dd8       0x16 prom/cppmain.o
                0x00123dd8                typeinfo name for main::MyHalAdapter
 .rodata._ZTI15krnl_HalAdapter
                0x00123dee        0x8 prom/cppmain.o
                0x00123dee                typeinfo for krnl_HalAdapter
 .rodata._ZTS15krnl_HalAdapter
                0x00123df6       0x12 prom/cppmain.o
                0x00123df6                typeinfo name for krnl_HalAdapter
 .rodata._ZTV15krnl_HalAdapter
                0x00123e08        0xc prom/cppmain.o
                0x00123e08                vtable for krnl_HalAdapter
 .rodata.str1.1
                0x00123e14      0x10a prom/EEPromOnB.o
                                0x112 (size before relaxing)
 .rodata        0x00123f1e        0x4 prom/EEPromOnB.o
 *fill*         0x00123f22        0x2 00
 .rodata._ZTV30OnBoardEepromHardwareInterface
                0x00123f24       0x18 prom/EEPromOnB.o
                0x00123f24                vtable for OnBoardEepromHardwareInterface
 .rodata._ZTI30OnBoardEepromHardwareInterface
                0x00123f3c        0xc prom/EEPromOnB.o
                0x00123f3c                typeinfo for OnBoardEepromHardwareInterface
 .rodata._ZTS30OnBoardEepromHardwareInterface
                0x00123f48       0x21 prom/EEPromOnB.o
                0x00123f48                typeinfo name for OnBoardEepromHardwareInterface
 *fill*         0x00123f69        0x1 00
 .rodata._ZTI29keyplug_EepromHardwareAdapter
                0x00123f6a        0x8 prom/EEPromOnB.o
                0x00123f6a                typeinfo for keyplug_EepromHardwareAdapter
 .rodata._ZTS29keyplug_EepromHardwareAdapter
                0x00123f72       0x20 prom/EEPromOnB.o
                0x00123f72                typeinfo name for keyplug_EepromHardwareAdapter
 *fill*         0x00123f92        0x2 00
 .rodata._ZTV29keyplug_EepromHardwareAdapter
                0x00123f94       0x18 prom/EEPromOnB.o
                0x00123f94                vtable for keyplug_EepromHardwareAdapter
 .rodata.str1.1
                0x00123fac       0x6e prom/EEProm.o
                                 0x6f (size before relaxing)
 .rodata.str1.1
                0x0012401a       0xbf prom/nctrl_resetcmd.o
                                0x129 (size before relaxing)
 *fill*         0x001240d9        0x1 00
 .rodata        0x001240da      0x440 prom/softfloat.o
 *fill*         0x0012451a        0x2 00
 .rodata._ZTVN10__cxxabiv117__class_type_infoE
                0x0012451c       0x2c D:\synergy\ccm_wa\tmbo\ME_ECS\HMI_devel-tmbo_bes_1211\HMI_devel\gnuc\bes\m68k-bes-rtems4.9\lib\mcpu32/libstdc++.a(class_type_info.o)
                0x0012451c                vtable for __cxxabiv1::__class_type_info
 .rodata._ZTSN10__cxxabiv117__class_type_infoE
                0x00124548       0x22 D:\synergy\ccm_wa\tmbo\ME_ECS\HMI_devel-tmbo_bes_1211\HMI_devel\gnuc\bes\m68k-bes-rtems4.9\lib\mcpu32/libstdc++.a(class_type_info.o)
                0x00124548                typeinfo name for __cxxabiv1::__class_type_info
 .rodata._ZTIN10__cxxabiv117__class_type_infoE
                0x0012456a        0xc D:\synergy\ccm_wa\tmbo\ME_ECS\HMI_devel-tmbo_bes_1211\HMI_devel\gnuc\bes\m68k-bes-rtems4.9\lib\mcpu32/libstdc++.a(class_type_info.o)
                0x0012456a                typeinfo for __cxxabiv1::__class_type_info
 *fill*         0x00124576        0x2 00
 .rodata._ZTVN10__cxxabiv120__si_class_type_infoE
                0x00124578       0x2c D:\synergy\ccm_wa\tmbo\ME_ECS\HMI_devel-tmbo_bes_1211\HMI_devel\gnuc\bes\m68k-bes-rtems4.9\lib\mcpu32/libstdc++.a(si_class_type_info.o)
                0x00124578                vtable for __cxxabiv1::__si_class_type_info
 .rodata._ZTSN10__cxxabiv120__si_class_type_infoE
                0x001245a4       0x25 D:\synergy\ccm_wa\tmbo\ME_ECS\HMI_devel-tmbo_bes_1211\HMI_devel\gnuc\bes\m68k-bes-rtems4.9\lib\mcpu32/libstdc++.a(si_class_type_info.o)
                0x001245a4                typeinfo name for __cxxabiv1::__si_class_type_info
 *fill*         0x001245c9        0x1 00
 .rodata._ZTIN10__cxxabiv120__si_class_type_infoE
                0x001245ca        0xc D:\synergy\ccm_wa\tmbo\ME_ECS\HMI_devel-tmbo_bes_1211\HMI_devel\gnuc\bes\m68k-bes-rtems4.9\lib\mcpu32/libstdc++.a(si_class_type_info.o)
                0x001245ca                typeinfo for __cxxabiv1::__si_class_type_info
 *fill*         0x001245d6        0x2 00
 .rodata._ZTVSt9type_info
                0x001245d8       0x20 D:\synergy\ccm_wa\tmbo\ME_ECS\HMI_devel-tmbo_bes_1211\HMI_devel\gnuc\bes\m68k-bes-rtems4.9\lib\mcpu32/libstdc++.a(tinfo.o)
                0x001245d8                vtable for std::type_info
 .rodata._ZTSSt9type_info
                0x001245f8        0xd D:\synergy\ccm_wa\tmbo\ME_ECS\HMI_devel-tmbo_bes_1211\HMI_devel\gnuc\bes\m68k-bes-rtems4.9\lib\mcpu32/libstdc++.a(tinfo.o)
                0x001245f8                typeinfo name for std::type_info
 *fill*         0x00124605        0x1 00
 .rodata._ZTISt9type_info
                0x00124606        0x8 D:\synergy\ccm_wa\tmbo\ME_ECS\HMI_devel-tmbo_bes_1211\HMI_devel\gnuc\bes\m68k-bes-rtems4.9\lib\mcpu32/libstdc++.a(tinfo.o)
                0x00124606                typeinfo for std::type_info
 *fill*         0x0012460e        0x2 00
 .rodata._ZTVN10__cxxabiv121__vmi_class_type_infoE
                0x00124610       0x2c D:\synergy\ccm_wa\tmbo\ME_ECS\HMI_devel-tmbo_bes_1211\HMI_devel\gnuc\bes\m68k-bes-rtems4.9\lib\mcpu32/libstdc++.a(vmi_class_type_info.o)
                0x00124610                vtable for __cxxabiv1::__vmi_class_type_info
 .rodata._ZTSN10__cxxabiv121__vmi_class_type_infoE
                0x0012463c       0x26 D:\synergy\ccm_wa\tmbo\ME_ECS\HMI_devel-tmbo_bes_1211\HMI_devel\gnuc\bes\m68k-bes-rtems4.9\lib\mcpu32/libstdc++.a(vmi_class_type_info.o)
                0x0012463c                typeinfo name for __cxxabiv1::__vmi_class_type_info
 .rodata._ZTIN10__cxxabiv121__vmi_class_type_infoE
                0x00124662        0xc D:\synergy\ccm_wa\tmbo\ME_ECS\HMI_devel-tmbo_bes_1211\HMI_devel\gnuc\bes\m68k-bes-rtems4.9\lib\mcpu32/libstdc++.a(vmi_class_type_info.o)
                0x00124662                typeinfo for __cxxabiv1::__vmi_class_type_info
 .rodata.str1.1
                0x00000000       0xbf D:\synergy\ccm_wa\tmbo\ME_ECS\HMI_devel-tmbo_bes_1211\HMI_devel\gnuc\bes\m68k-bes-rtems4.9\lib\mcpu32/libm.a(lib_a-w_sqrt.o)
                                  0x5 (size before relaxing)
 .rodata        0x0012466e        0x4 D:\synergy\ccm_wa\tmbo\ME_ECS\HMI_devel-tmbo_bes_1211\HMI_devel\gnuc\bes\m68k-bes-rtems4.9\lib\mcpu32/libc.a(lib_a-impure.o)
                0x0012466e                _global_impure_ptr
 .rodata.str1.1
                0x00000000       0xbf D:\synergy\ccm_wa\tmbo\ME_ECS\HMI_devel-tmbo_bes_1211\HMI_devel\gnuc\bes\m68k-bes-rtems4.9\lib\mcpu32/libc.a(lib_a-impure.o)
                                  0x2 (size before relaxing)
 .rodata.str1.1
                0x00124672       0x4c D:\synergy\ccm_wa\tmbo\ME_ECS\HMI_devel-tmbo_bes_1211\HMI_devel\gnuc\bes\m68k-bes-rtems4.9\lib\mcpu32/libc.a(lib_a-vfprintf.o)
                                 0x4e (size before relaxing)
 .rodata        0x001246be       0x20 D:\synergy\ccm_wa\tmbo\ME_ECS\HMI_devel-tmbo_bes_1211\HMI_devel\gnuc\bes\m68k-bes-rtems4.9\lib\mcpu32/libc.a(lib_a-vfprintf.o)
 .rodata        0x001246de      0x101 D:\synergy\ccm_wa\tmbo\ME_ECS\HMI_devel-tmbo_bes_1211\HMI_devel\gnuc\bes\m68k-bes-rtems4.9\lib\mcpu32/libc.a(lib_a-ctype_.o)
                0x001246de                _ctype_
 .rodata.str1.1
                0x001247df        0xd D:\synergy\ccm_wa\tmbo\ME_ECS\HMI_devel-tmbo_bes_1211\HMI_devel\gnuc\bes\m68k-bes-rtems4.9\lib\mcpu32/libc.a(lib_a-dtoa.o)
                                  0xf (size before relaxing)
 .rodata.str1.1
                0x001247ec        0xb D:\synergy\ccm_wa\tmbo\ME_ECS\HMI_devel-tmbo_bes_1211\HMI_devel\gnuc\bes\m68k-bes-rtems4.9\lib\mcpu32/libc.a(lib_a-locale.o)
                                 0x10 (size before relaxing)
 *fill*         0x001247f7        0x1 00
 .rodata        0x001247f8       0x34 D:\synergy\ccm_wa\tmbo\ME_ECS\HMI_devel-tmbo_bes_1211\HMI_devel\gnuc\bes\m68k-bes-rtems4.9\lib\mcpu32/libc.a(lib_a-locale.o)
 .rodata        0x0012482c      0x124 D:\synergy\ccm_wa\tmbo\ME_ECS\HMI_devel-tmbo_bes_1211\HMI_devel\gnuc\bes\m68k-bes-rtems4.9\lib\mcpu32/libc.a(lib_a-mprec.o)
                0x0012491c                __mprec_tinytens
                0x0012482c                __mprec_tens
                0x001248f4                __mprec_bigtens
 .rodata        0x00124950      0x100 D:\synergy\ccm_wa\tmbo\ME_ECS\HMI_devel-tmbo_bes_1211\HMI_devel\gnuc\bes\lib\gcc\m68k-bes-rtems4.9\4.3.2\mcpu32/libgcc.a(_clz.o)
                0x00124950                __clz_tab

.eh_frame       0x00124a50      0x118
 .eh_frame      0x00124a50        0x0 D:\synergy\ccm_wa\tmbo\ME_ECS\HMI_devel-tmbo_bes_1211\HMI_devel\gnuc\bes\lib\gcc\m68k-bes-rtems4.9\4.3.2\mcpu32/crtbegin.o
 .eh_frame      0x00124a50        0x4 D:\synergy\ccm_wa\tmbo\ME_ECS\HMI_devel-tmbo_bes_1211\HMI_devel\gnuc\bes\lib\gcc\m68k-bes-rtems4.9\4.3.2\mcpu32/crtend.o
 .eh_frame      0x00124a54       0x38 D:\synergy\ccm_wa\tmbo\ME_ECS\HMI_devel-tmbo_bes_1211\HMI_devel\gnuc\bes\lib\gcc\m68k-bes-rtems4.9\4.3.2\mcpu32/libgcc.a(_udivdi3.o)
 .eh_frame      0x00124a8c       0x38 D:\synergy\ccm_wa\tmbo\ME_ECS\HMI_devel-tmbo_bes_1211\HMI_devel\gnuc\bes\lib\gcc\m68k-bes-rtems4.9\4.3.2\mcpu32/libgcc.a(_umoddi3.o)
 .eh_frame      0x00124ac4       0xa4 D:\synergy\ccm_wa\tmbo\ME_ECS\HMI_devel-tmbo_bes_1211\HMI_devel\gnuc\bes\lib\gcc\m68k-bes-rtems4.9\4.3.2\mcpu32/libgcc.a(xfgnulib.o)
                0x00124b68                . = ALIGN (0x2)
                0x00124b68                _flash_data = .
                0x00800000                . = 0x800000

.data           0x00800000     0x1a3c load address 0x00124b68
                0x00800000                _data = .
 *(vtable)
 *(.data*)
 .data          0x00800000        0x4 D:\synergy\ccm_wa\tmbo\ME_ECS\HMI_devel-tmbo_bes_1211\HMI_devel\gnuc\bes\lib\gcc\m68k-bes-rtems4.9\4.3.2\mcpu32/crtbegin.o
                0x00800000                __dso_handle
 .data          0x00800004        0x0 prom/testsoftfloat.o
 .data          0x00800004        0x4 prom/remainder.o
                0x00800004                slow_float_detect_tininess
 .data          0x00800008        0x0 prom/runsf.o
 .data          0x00800008        0x0 prom/rtl.o
 .data          0x00800008        0x0 prom/new.o
 .data          0x00800008        0x0 prom/co_bitset.o
 .data          0x00800008        0x1 prom/crc32.o
 *fill*         0x00800009        0x3 00
 .data          0x0080000c        0x0 prom/crc.o
 .data          0x0080000c        0x0 prom/flsh_bios_amd.o
 .data          0x0080000c        0x0 prom/flsh_bios_intel.o
 .data          0x0080000c        0x0 prom/flsh_device.o
 .data          0x0080000c        0x0 prom/flsh_device_amd.o
 .data          0x0080000c        0x0 prom/flsh_device_intel.o
 .data          0x0080000c        0x0 prom/flsh_device_ram.o
 .data          0x0080000c        0x0 prom/flsh_manager.o
 .data          0x0080000c        0x0 prom/flsh_memory.o
 .data          0x0080000c        0x0 prom/krnl_astd.o
 .data          0x0080000c        0x0 prom/krnl_atst.o
 .data          0x0080000c        0x0 prom/krnl_alog.o
 .data          0x0080000c        0x0 prom/krnl_aseq.o
 .data          0x0080000c        0x0 prom/krnl_asto.o
 .data          0x0080000c        0x0 prom/krnl_prmtst.o
 .data          0x0080000c        0x0 prom/krnl_xwdh.o
 .data          0x0080000c        0x1 prom/krnl_sngltn.o
 *fill*         0x0080000d        0x3 00
 .data          0x00800010        0x0 prom/krnl_time.o
 .data          0x00800010        0x0 prom/krnl_epilog.o
 .data          0x00800010        0x0 prom/krnl_clkfrq.o
 .data          0x00800010        0x4 prom/krnl_evt.o
                0x00800010                krnl_defaultExceptionVector
 .data          0x00800014        0x0 prom/krnl_evtasm.o
 .data          0x00800014        0x0 prom/krnl_intwd.o
 .data          0x00800014        0x0 prom/krnl_pit.o
 .data          0x00800014        0x0 prom/krnl_sci.o
 .data          0x00800014        0x0 prom/krnl_xcptin.o
 .data          0x00800014        0x0 prom/cbw_extwd.o
 .data          0x00800014        0x0 prom/cbw_inl.o
 .data          0x00800014        0x0 prom/cbw_outl.o
 .data          0x00800014        0x1 prom/cbw_outl3.o
 *fill*         0x00800015        0x3 00
 .data          0x00800018        0x0 prom/krnl_flmem.o
 .data          0x00800018        0x0 prom/krnl_flpar.o
 .data          0x00800018        0x2 prom/krnl_flstr.o
 *fill*         0x0080001a        0x2 00
 .data          0x0080001c        0x0 prom/krnl_stores.o
 .data          0x0080001c        0x0 prom/krnl_rtc.o
 .data          0x0080001c        0x0 prom/krnl_nclk_r.o
 .data          0x0080001c        0x0 prom/krnl_ntime_r.o
 .data          0x0080001c        0x0 prom/krnl_crttsk.o
 .data          0x0080001c        0x0 prom/krnl_otmr.o
 .data          0x0080001c        0x0 prom/krnl_stask.o
 .data          0x0080001c        0x0 prom/krnl_crtreg_r.o
 .data          0x0080001c        0x0 prom/krnl_curtask_r.o
 .data          0x0080001c        0x0 prom/krnl_otmr_r.o
 .data          0x0080001c        0x0 prom/krnl_queue_r.o
 .data          0x0080001c        0x0 prom/krnl_res_r.o
 .data          0x0080001c        0x0 prom/krnl_sema_r.o
 .data          0x0080001c        0x0 prom/krnl_task_r.o
 .data          0x0080001c        0x0 prom/krnl_taskid_r.o
 .data          0x0080001c        0x0 prom/krnl_wait_r.o
 .data          0x0080001c        0x1 prom/krnl_reset.o
 *fill*         0x0080001d        0x3 00
 .data          0x00800020        0x0 prom/cclock.o
 .data          0x00800020        0x0 prom/cmbox.o
 .data          0x00800020        0x0 prom/cpart.o
 .data          0x00800020       0xbd prom/cqueue.o
                0x00800020                queuename
 *fill*         0x008000dd        0x3 00
 .data          0x008000e0      0x909 prom/cres.o
                0x008000e0                resname
 *fill*         0x008009e9        0x3 00
 .data          0x008009ec      0x914 prom/csema.o
                0x008009ec                nsemas
                0x008009ee                semaname
 .data          0x00801300      0x2e2 prom/ctask.o
                0x00801300                taskname
 *fill*         0x008015e2        0x2 00
 .data          0x008015e4        0x0 prom/format.o
 .data          0x008015e4        0x0 prom/rtxcbug.o
 .data          0x008015e4        0x0 prom/rtxc.o
 .data          0x008015e4        0x0 prom/rtxcapi.o
 .data          0x008015e4        0x0 prom/rtxcinit.o
 .data          0x008015e4        0x0 prom/setvect.o
 .data          0x008015e4        0x0 prom/rtxcasm.o
 .data          0x008015e4        0x0 prom/krnl_adef.o
 .data          0x008015e4        0x0 prom/krnl_sastd.o
 .data          0x008015e4        0x0 prom/krnl_sasto.o
 .data          0x008015e4        0x4 prom/krnl_satst.o
                0x008015e4                krnl_SimpleTestableAssertions::s_implPtr
 .data          0x008015e8        0x0 prom/krnl_scires.o
 .data          0x008015e8        0x0 prom/krnl_scidrv_m.o
 .data          0x008015e8        0x0 prom/krnl_sciisr_m.o
 .data          0x008015e8        0x0 prom/krnl_heap_m.o
 .data          0x008015e8        0x0 prom/krnl_init_m.o
 .data          0x008015e8        0x0 prom/krnl_rclk_m.o
 .data          0x008015e8        0x0 prom/krnl_rclkasm_m.o
 .data          0x008015e8        0x0 prom/krnl_unex_m.o
 .data          0x008015e8        0x0 prom/krnl_trcchnl.o
 .data          0x008015e8        0x0 prom/entry.o
 .data          0x008015e8        0x0 prom/entry_hooks.o
 .data          0x008015e8       0x14 prom/ccbw_int.o
 .data          0x008015fc        0x0 prom/ccbw_intasm.o
 .data          0x008015fc        0x0 prom/ccbw_latch.o
 .data          0x008015fc        0x1 prom/ccbw_outl0.o
 *fill*         0x008015fd        0x3 00
 .data          0x00801600        0x0 prom/ccbw_outl1.o
 .data          0x00801600        0x0 prom/ccbw_outl2.o
 .data          0x00801600        0x0 prom/cppmain.o
 .data          0x00801600        0x0 prom/EEPromOnB.o
 .data          0x00801600        0x0 prom/EEProm.o
 .data          0x00801600        0x0 prom/listreg.o
 .data          0x00801600        0x0 prom/nctrl_resetcmd.o
 .data          0x00801600        0x4 prom/softfloat.o
                0x00801600                float_detect_tininess
 .data          0x00801604        0x0 prom/softfloatmap.o
 .data          0x00801604        0x0 D:\synergy\ccm_wa\tmbo\ME_ECS\HMI_devel-tmbo_bes_1211\HMI_devel\gnuc\bes\lib\gcc\m68k-bes-rtems4.9\4.3.2\mcpu32/crtend.o
 .data          0x00801604        0x0 D:\synergy\ccm_wa\tmbo\ME_ECS\HMI_devel-tmbo_bes_1211\HMI_devel\gnuc\bes\m68k-bes-rtems4.9\lib\mcpu32/libstdc++.a(class_type_info.o)
 .data          0x00801604        0x0 D:\synergy\ccm_wa\tmbo\ME_ECS\HMI_devel-tmbo_bes_1211\HMI_devel\gnuc\bes\m68k-bes-rtems4.9\lib\mcpu32/libstdc++.a(del_opv.o)
 .data          0x00801604        0x0 D:\synergy\ccm_wa\tmbo\ME_ECS\HMI_devel-tmbo_bes_1211\HMI_devel\gnuc\bes\m68k-bes-rtems4.9\lib\mcpu32/libstdc++.a(new_opv.o)
 .data          0x00801604        0x0 D:\synergy\ccm_wa\tmbo\ME_ECS\HMI_devel-tmbo_bes_1211\HMI_devel\gnuc\bes\m68k-bes-rtems4.9\lib\mcpu32/libstdc++.a(si_class_type_info.o)
 .data          0x00801604        0x0 D:\synergy\ccm_wa\tmbo\ME_ECS\HMI_devel-tmbo_bes_1211\HMI_devel\gnuc\bes\m68k-bes-rtems4.9\lib\mcpu32/libstdc++.a(tinfo.o)
 .data          0x00801604        0x0 D:\synergy\ccm_wa\tmbo\ME_ECS\HMI_devel-tmbo_bes_1211\HMI_devel\gnuc\bes\m68k-bes-rtems4.9\lib\mcpu32/libstdc++.a(vmi_class_type_info.o)
 .data          0x00801604        0x0 D:\synergy\ccm_wa\tmbo\ME_ECS\HMI_devel-tmbo_bes_1211\HMI_devel\gnuc\bes\m68k-bes-rtems4.9\lib\mcpu32/libm.a(lib_a-s_floor.o)
 .data          0x00801604        0x0 D:\synergy\ccm_wa\tmbo\ME_ECS\HMI_devel-tmbo_bes_1211\HMI_devel\gnuc\bes\m68k-bes-rtems4.9\lib\mcpu32/libm.a(lib_a-w_sqrt.o)
 .data          0x00801604        0x0 D:\synergy\ccm_wa\tmbo\ME_ECS\HMI_devel-tmbo_bes_1211\HMI_devel\gnuc\bes\m68k-bes-rtems4.9\lib\mcpu32/libm.a(lib_a-e_sqrt.o)
 .data          0x00801604        0x0 D:\synergy\ccm_wa\tmbo\ME_ECS\HMI_devel-tmbo_bes_1211\HMI_devel\gnuc\bes\m68k-bes-rtems4.9\lib\mcpu32/libm.a(lib_a-s_isnand.o)
 .data          0x00801604        0x4 D:\synergy\ccm_wa\tmbo\ME_ECS\HMI_devel-tmbo_bes_1211\HMI_devel\gnuc\bes\m68k-bes-rtems4.9\lib\mcpu32/libm.a(lib_a-s_lib_ver.o)
                0x00801604                __fdlib_version
 .data          0x00801608        0x0 D:\synergy\ccm_wa\tmbo\ME_ECS\HMI_devel-tmbo_bes_1211\HMI_devel\gnuc\bes\m68k-bes-rtems4.9\lib\mcpu32/libm.a(lib_a-s_matherr.o)
 .data          0x00801608        0x0 D:\synergy\ccm_wa\tmbo\ME_ECS\HMI_devel-tmbo_bes_1211\HMI_devel\gnuc\bes\lib\gcc\m68k-bes-rtems4.9\4.3.2\mcpu32/libgcc.a(_double.o)
 .data          0x00801608        0x0 D:\synergy\ccm_wa\tmbo\ME_ECS\HMI_devel-tmbo_bes_1211\HMI_devel\gnuc\bes\lib\gcc\m68k-bes-rtems4.9\4.3.2\mcpu32/libgcc.a(_float.o)
 .data          0x00801608       0x1c D:\synergy\ccm_wa\tmbo\ME_ECS\HMI_devel-tmbo_bes_1211\HMI_devel\gnuc\bes\lib\gcc\m68k-bes-rtems4.9\4.3.2\mcpu32/libgcc.a(_floatex.o)
                0x00801608                _fpCCR
 .data          0x00801624        0x0 D:\synergy\ccm_wa\tmbo\ME_ECS\HMI_devel-tmbo_bes_1211\HMI_devel\gnuc\bes\lib\gcc\m68k-bes-rtems4.9\4.3.2\mcpu32/libgcc.a(_gtdf2.o)
 .data          0x00801624        0x0 D:\synergy\ccm_wa\tmbo\ME_ECS\HMI_devel-tmbo_bes_1211\HMI_devel\gnuc\bes\lib\gcc\m68k-bes-rtems4.9\4.3.2\mcpu32/libgcc.a(_ltdf2.o)
 .data          0x00801624        0x0 D:\synergy\ccm_wa\tmbo\ME_ECS\HMI_devel-tmbo_bes_1211\HMI_devel\gnuc\bes\lib\gcc\m68k-bes-rtems4.9\4.3.2\mcpu32/libgcc.a(fpgnulib.o)
 .data          0x00801624        0x0 D:\synergy\ccm_wa\tmbo\ME_ECS\HMI_devel-tmbo_bes_1211\HMI_devel\gnuc\bes\m68k-bes-rtems4.9\lib\mcpu32/libc.a(lib_a-abs.o)
 .data          0x00801624        0x0 D:\synergy\ccm_wa\tmbo\ME_ECS\HMI_devel-tmbo_bes_1211\HMI_devel\gnuc\bes\m68k-bes-rtems4.9\lib\mcpu32/libc.a(lib_a-atexit.o)
 .data          0x00801624        0x0 D:\synergy\ccm_wa\tmbo\ME_ECS\HMI_devel-tmbo_bes_1211\HMI_devel\gnuc\bes\m68k-bes-rtems4.9\lib\mcpu32/libc.a(lib_a-atoi.o)
 .data          0x00801624        0x0 D:\synergy\ccm_wa\tmbo\ME_ECS\HMI_devel-tmbo_bes_1211\HMI_devel\gnuc\bes\m68k-bes-rtems4.9\lib\mcpu32/libc.a(lib_a-errno.o)
 .data          0x00801624        0x0 D:\synergy\ccm_wa\tmbo\ME_ECS\HMI_devel-tmbo_bes_1211\HMI_devel\gnuc\bes\m68k-bes-rtems4.9\lib\mcpu32/libc.a(lib_a-exit.o)
 .data          0x00801624      0x402 D:\synergy\ccm_wa\tmbo\ME_ECS\HMI_devel-tmbo_bes_1211\HMI_devel\gnuc\bes\m68k-bes-rtems4.9\lib\mcpu32/libc.a(lib_a-impure.o)
                0x00801624                _impure_ptr
 *fill*         0x00801a26        0x2 00
 .data          0x00801a28        0x0 D:\synergy\ccm_wa\tmbo\ME_ECS\HMI_devel-tmbo_bes_1211\HMI_devel\gnuc\bes\m68k-bes-rtems4.9\lib\mcpu32/libc.a(lib_a-init.o)
 .data          0x00801a28        0x0 D:\synergy\ccm_wa\tmbo\ME_ECS\HMI_devel-tmbo_bes_1211\HMI_devel\gnuc\bes\m68k-bes-rtems4.9\lib\mcpu32/libc.a(lib_a-memset.o)
 .data          0x00801a28        0x0 D:\synergy\ccm_wa\tmbo\ME_ECS\HMI_devel-tmbo_bes_1211\HMI_devel\gnuc\bes\m68k-bes-rtems4.9\lib\mcpu32/libc.a(lib_a-sprintf.o)
 .data          0x00801a28        0x0 D:\synergy\ccm_wa\tmbo\ME_ECS\HMI_devel-tmbo_bes_1211\HMI_devel\gnuc\bes\m68k-bes-rtems4.9\lib\mcpu32/libc.a(lib_a-strcmp.o)
 .data          0x00801a28        0x0 D:\synergy\ccm_wa\tmbo\ME_ECS\HMI_devel-tmbo_bes_1211\HMI_devel\gnuc\bes\m68k-bes-rtems4.9\lib\mcpu32/libc.a(lib_a-strcpy.o)
 .data          0x00801a28        0x0 D:\synergy\ccm_wa\tmbo\ME_ECS\HMI_devel-tmbo_bes_1211\HMI_devel\gnuc\bes\m68k-bes-rtems4.9\lib\mcpu32/libc.a(lib_a-strlen.o)
 .data          0x00801a28        0x0 D:\synergy\ccm_wa\tmbo\ME_ECS\HMI_devel-tmbo_bes_1211\HMI_devel\gnuc\bes\m68k-bes-rtems4.9\lib\mcpu32/libc.a(lib_a-strncmp.o)
 .data          0x00801a28        0x0 D:\synergy\ccm_wa\tmbo\ME_ECS\HMI_devel-tmbo_bes_1211\HMI_devel\gnuc\bes\m68k-bes-rtems4.9\lib\mcpu32/libc.a(lib_a-strtol.o)
 .data          0x00801a28        0x0 D:\synergy\ccm_wa\tmbo\ME_ECS\HMI_devel-tmbo_bes_1211\HMI_devel\gnuc\bes\m68k-bes-rtems4.9\lib\mcpu32/libc.a(lib_a-vfprintf.o)
 .data          0x00801a28        0x0 D:\synergy\ccm_wa\tmbo\ME_ECS\HMI_devel-tmbo_bes_1211\HMI_devel\gnuc\bes\m68k-bes-rtems4.9\lib\mcpu32/libc.a(lib_a-vsprintf.o)
 .data          0x00801a28        0x0 D:\synergy\ccm_wa\tmbo\ME_ECS\HMI_devel-tmbo_bes_1211\HMI_devel\gnuc\bes\m68k-bes-rtems4.9\lib\mcpu32/libc.a(lib_a-wsetup.o)
 .data          0x00801a28        0x0 D:\synergy\ccm_wa\tmbo\ME_ECS\HMI_devel-tmbo_bes_1211\HMI_devel\gnuc\bes\m68k-bes-rtems4.9\lib\mcpu32/libc.a(lib_a-__atexit.o)
 .data          0x00801a28        0x0 D:\synergy\ccm_wa\tmbo\ME_ECS\HMI_devel-tmbo_bes_1211\HMI_devel\gnuc\bes\m68k-bes-rtems4.9\lib\mcpu32/libc.a(lib_a-__call_atexit.o)
 .data          0x00801a28        0x4 D:\synergy\ccm_wa\tmbo\ME_ECS\HMI_devel-tmbo_bes_1211\HMI_devel\gnuc\bes\m68k-bes-rtems4.9\lib\mcpu32/libc.a(lib_a-ctype_.o)
                0x00801a28                __ctype_ptr
 .data          0x00801a2c        0x0 D:\synergy\ccm_wa\tmbo\ME_ECS\HMI_devel-tmbo_bes_1211\HMI_devel\gnuc\bes\m68k-bes-rtems4.9\lib\mcpu32/libc.a(lib_a-dtoa.o)
 .data          0x00801a2c        0x0 D:\synergy\ccm_wa\tmbo\ME_ECS\HMI_devel-tmbo_bes_1211\HMI_devel\gnuc\bes\m68k-bes-rtems4.9\lib\mcpu32/libc.a(lib_a-fflush.o)
 .data          0x00801a2c        0x0 D:\synergy\ccm_wa\tmbo\ME_ECS\HMI_devel-tmbo_bes_1211\HMI_devel\gnuc\bes\m68k-bes-rtems4.9\lib\mcpu32/libc.a(lib_a-findfp.o)
 .data          0x00801a2c        0x0 D:\synergy\ccm_wa\tmbo\ME_ECS\HMI_devel-tmbo_bes_1211\HMI_devel\gnuc\bes\m68k-bes-rtems4.9\lib\mcpu32/libc.a(lib_a-fvwrite.o)
 .data          0x00801a2c        0x0 D:\synergy\ccm_wa\tmbo\ME_ECS\HMI_devel-tmbo_bes_1211\HMI_devel\gnuc\bes\m68k-bes-rtems4.9\lib\mcpu32/libc.a(lib_a-fwalk.o)
 .data          0x00801a2c       0x10 D:\synergy\ccm_wa\tmbo\ME_ECS\HMI_devel-tmbo_bes_1211\HMI_devel\gnuc\bes\m68k-bes-rtems4.9\lib\mcpu32/libc.a(lib_a-locale.o)
                0x00801a2c                __mb_cur_max
                0x00801a30                __lc_ctype
 .data          0x00801a3c        0x0 D:\synergy\ccm_wa\tmbo\ME_ECS\HMI_devel-tmbo_bes_1211\HMI_devel\gnuc\bes\m68k-bes-rtems4.9\lib\mcpu32/libc.a(lib_a-makebuf.o)
 .data          0x00801a3c        0x0 D:\synergy\ccm_wa\tmbo\ME_ECS\HMI_devel-tmbo_bes_1211\HMI_devel\gnuc\bes\m68k-bes-rtems4.9\lib\mcpu32/libc.a(lib_a-memchr.o)
 .data          0x00801a3c        0x0 D:\synergy\ccm_wa\tmbo\ME_ECS\HMI_devel-tmbo_bes_1211\HMI_devel\gnuc\bes\m68k-bes-rtems4.9\lib\mcpu32/libc.a(lib_a-memmove.o)
 .data          0x00801a3c        0x0 D:\synergy\ccm_wa\tmbo\ME_ECS\HMI_devel-tmbo_bes_1211\HMI_devel\gnuc\bes\m68k-bes-rtems4.9\lib\mcpu32/libc.a(lib_a-mprec.o)
 .data          0x00801a3c        0x0 D:\synergy\ccm_wa\tmbo\ME_ECS\HMI_devel-tmbo_bes_1211\HMI_devel\gnuc\bes\m68k-bes-rtems4.9\lib\mcpu32/libc.a(lib_a-s_frexp.o)
 .data          0x00801a3c        0x0 D:\synergy\ccm_wa\tmbo\ME_ECS\HMI_devel-tmbo_bes_1211\HMI_devel\gnuc\bes\m68k-bes-rtems4.9\lib\mcpu32/libc.a(lib_a-s_isinfd.o)
 .data          0x00801a3c        0x0 D:\synergy\ccm_wa\tmbo\ME_ECS\HMI_devel-tmbo_bes_1211\HMI_devel\gnuc\bes\m68k-bes-rtems4.9\lib\mcpu32/libc.a(lib_a-stdio.o)
 .data          0x00801a3c        0x0 D:\synergy\ccm_wa\tmbo\ME_ECS\HMI_devel-tmbo_bes_1211\HMI_devel\gnuc\bes\m68k-bes-rtems4.9\lib\mcpu32/libc.a(lib_a-fclose.o)
 .data          0x00801a3c        0x0 D:\synergy\ccm_wa\tmbo\ME_ECS\HMI_devel-tmbo_bes_1211\HMI_devel\gnuc\bes\lib\gcc\m68k-bes-rtems4.9\4.3.2\mcpu32/libgcc.a(_eqdf2.o)
 .data          0x00801a3c        0x0 D:\synergy\ccm_wa\tmbo\ME_ECS\HMI_devel-tmbo_bes_1211\HMI_devel\gnuc\bes\lib\gcc\m68k-bes-rtems4.9\4.3.2\mcpu32/libgcc.a(_nedf2.o)
 .data          0x00801a3c        0x0 D:\synergy\ccm_wa\tmbo\ME_ECS\HMI_devel-tmbo_bes_1211\HMI_devel\gnuc\bes\lib\gcc\m68k-bes-rtems4.9\4.3.2\mcpu32/libgcc.a(_gedf2.o)
 .data          0x00801a3c        0x0 D:\synergy\ccm_wa\tmbo\ME_ECS\HMI_devel-tmbo_bes_1211\HMI_devel\gnuc\bes\lib\gcc\m68k-bes-rtems4.9\4.3.2\mcpu32/libgcc.a(_udivdi3.o)
 .data          0x00801a3c        0x0 D:\synergy\ccm_wa\tmbo\ME_ECS\HMI_devel-tmbo_bes_1211\HMI_devel\gnuc\bes\lib\gcc\m68k-bes-rtems4.9\4.3.2\mcpu32/libgcc.a(_umoddi3.o)
 .data          0x00801a3c        0x0 D:\synergy\ccm_wa\tmbo\ME_ECS\HMI_devel-tmbo_bes_1211\HMI_devel\gnuc\bes\lib\gcc\m68k-bes-rtems4.9\4.3.2\mcpu32/libgcc.a(xfgnulib.o)
 .data          0x00801a3c        0x0 D:\synergy\ccm_wa\tmbo\ME_ECS\HMI_devel-tmbo_bes_1211\HMI_devel\gnuc\bes\lib\gcc\m68k-bes-rtems4.9\4.3.2\mcpu32/libgcc.a(_clz.o)
                0x00801a3c                _edata = .

.jcr            0x00801a3c        0x4 load address 0x001265a4
 .jcr           0x00801a3c        0x0 D:\synergy\ccm_wa\tmbo\ME_ECS\HMI_devel-tmbo_bes_1211\HMI_devel\gnuc\bes\lib\gcc\m68k-bes-rtems4.9\4.3.2\mcpu32/crtbegin.o
 .jcr           0x00801a3c        0x4 D:\synergy\ccm_wa\tmbo\ME_ECS\HMI_devel-tmbo_bes_1211\HMI_devel\gnuc\bes\lib\gcc\m68k-bes-rtems4.9\4.3.2\mcpu32/crtend.o

.stack          0x00801a40     0x1000 load address 0x001265a8
                0x00801a40                _stack = .
                0x00802a40                . = (. + 0x1000)
 *fill*         0x00801a40     0x1000 00
 *(.stack)
                0x00802a40                _stackend = .
                0x00802a40                stack = .

.bootvar        0x00802a40        0x6 load address 0x001275a8
 *(.bootvar)
 .bootvar       0x00802a40        0x4 prom/entry_hooks.o
 *(bootdata)
 bootdata       0x00802a44        0x2 prom/entry.o
                0x00802a44                _glob_password_given
                0x00802a46                _vars = .

.bss            0x00802a48     0x7080 load address 0x001275b0
                0x00802a48                _bss = .
 *(.bss*)
 .bss           0x00802a48       0x1e D:\synergy\ccm_wa\tmbo\ME_ECS\HMI_devel-tmbo_bes_1211\HMI_devel\gnuc\bes\lib\gcc\m68k-bes-rtems4.9\4.3.2\mcpu32/crtbegin.o
 *fill*         0x00802a66        0x2 00
 .bss           0x00802a68      0x100 prom/testsoftfloat.o
 .bss           0x00802b68        0x8 prom/remainder.o
                0x00802b68                slow_float_rounding_mode
                0x00802b6c                slow_float_exception_flags
 .bss           0x00802b70        0x2 prom/runsf.o
                0x00802b70                testStubSuccess
                0x00802b71                autoTest
 *fill*         0x00802b72        0x2 00
 .bss           0x00802b74        0x0 prom/rtl.o
 .bss           0x00802b74        0x0 prom/new.o
 .bss           0x00802b74        0x0 prom/co_bitset.o
 .bss           0x00802b74      0x400 prom/crc32.o
                0x00802b74                Crc32::CRCTable
 .bss           0x00802f74        0x0 prom/crc.o
 .bss           0x00802f74        0x0 prom/flsh_bios_amd.o
 .bss           0x00802f74        0x0 prom/flsh_bios_intel.o
 .bss           0x00802f74        0x0 prom/flsh_device.o
 .bss           0x00802f74        0x0 prom/flsh_device_amd.o
 .bss           0x00802f74        0x0 prom/flsh_device_intel.o
 .bss           0x00802f74        0x0 prom/flsh_device_ram.o
 .bss           0x00802f74      0x138 prom/flsh_manager.o
 .bss           0x008030ac        0x0 prom/flsh_memory.o
 .bss           0x008030ac      0x223 prom/krnl_astd.o
                0x008030ac                krnl_Assertions::s_instancePtr
 *fill*         0x008032cf        0x1 00
 .bss           0x008032d0      0x110 prom/krnl_atst.o
                0x008032d0                krnl_TestableAssertions::s_instancePtr
 .bss           0x008033e0       0x7e prom/krnl_alog.o
                0x008033e0                krnl_AssertLog::s_instancePtr
 *fill*         0x0080345e        0x2 00
 .bss           0x00803460        0x4 prom/krnl_aseq.o
 .bss           0x00803464        0x0 prom/krnl_asto.o
 .bss           0x00803464        0x0 prom/krnl_prmtst.o
 .bss           0x00803464       0x25 prom/krnl_xwdh.o
 *fill*         0x00803489        0x3 00
 .bss           0x0080348c       0x12 prom/krnl_sngltn.o
 *fill*         0x0080349e        0x2 00
 .bss           0x008034a0        0x0 prom/krnl_time.o
 .bss           0x008034a0        0x4 prom/krnl_epilog.o
                0x008034a0                krnl_epilog::fatal_function_
 .bss           0x008034a4        0x0 prom/krnl_clkfrq.o
 .bss           0x008034a4      0x40c prom/krnl_evt.o
                0x008034a4                krnl_ExceptionVectorTable::s_instancePtr
 .bss           0x008038b0        0x0 prom/krnl_evtasm.o
 .bss           0x008038b0        0x0 prom/krnl_intwd.o
 .bss           0x008038b0        0xd prom/krnl_pit.o
                0x008038b0                krnl_Pit::s_instancePtr
 *fill*         0x008038bd        0x3 00
 .bss           0x008038c0        0x0 prom/krnl_sci.o
 .bss           0x008038c0      0x120 prom/krnl_xcptin.o
                0x008038c0                krnl_exceptionStackFrame
 .bss           0x008039e0        0x0 prom/cbw_extwd.o
 .bss           0x008039e0        0x0 prom/cbw_inl.o
 .bss           0x008039e0        0x0 prom/cbw_outl.o
 .bss           0x008039e0       0x12 prom/cbw_outl3.o
 *fill*         0x008039f2        0x2 00
 .bss           0x008039f4        0x0 prom/krnl_flmem.o
 .bss           0x008039f4       0x11 prom/krnl_flpar.o
                0x008039f4                krnl_ParameterFlash::s_instancePtr
 *fill*         0x00803a05        0x3 00
 .bss           0x00803a08       0x2b prom/krnl_flstr.o
 *fill*         0x00803a33        0x1 00
 .bss           0x00803a34        0x0 prom/krnl_stores.o
 .bss           0x00803a34        0x0 prom/krnl_rtc.o
 .bss           0x00803a34        0xd prom/krnl_nclk_r.o
                0x00803a34                krnl_NodeClock::s_instancePtr
 *fill*         0x00803a41        0x3 00
 .bss           0x00803a44       0x18 prom/krnl_ntime_r.o
                0x00803a44                krnl_NodeTime::s_instancePtr
 .bss           0x00803a5c       0xf0 prom/krnl_crttsk.o
                0x00803a5c                krnl_TimeCriticalTaskMonitor::s_instancePtr
 .bss           0x00803b4c        0x0 prom/krnl_otmr.o
 .bss           0x00803b4c        0x0 prom/krnl_stask.o
 .bss           0x00803b4c        0x3 prom/krnl_crtreg_r.o
 *fill*         0x00803b4f        0x1 00
 .bss           0x00803b50        0x0 prom/krnl_curtask_r.o
 .bss           0x00803b50        0x0 prom/krnl_otmr_r.o
 .bss           0x00803b50        0x2 prom/krnl_queue_r.o
                0x00803b50                krnl_RtxcQueue::s_queueCount
 *fill*         0x00803b52        0x2 00
 .bss           0x00803b54        0x2 prom/krnl_res_r.o
                0x00803b54                krnl_Resource::s_resCount
 *fill*         0x00803b56        0x2 00
 .bss           0x00803b58        0x2 prom/krnl_sema_r.o
                0x00803b58                krnl_Semaphore::s_semaCount
 *fill*         0x00803b5a        0x2 00
 .bss           0x00803b5c        0x1 prom/krnl_task_r.o
                0x00803b5c                krnl_Task::s_terminateTasks
 *fill*         0x00803b5d        0x3 00
 .bss           0x00803b60        0x2 prom/krnl_taskid_r.o
                0x00803b60                krnl_TaskId::NONE
 *fill*         0x00803b62        0x2 00
 .bss           0x00803b64        0x2 prom/krnl_wait_r.o
                0x00803b64                krnl_WaitId::NONE
 *fill*         0x00803b66        0x2 00
 .bss           0x00803b68       0x12 prom/krnl_reset.o
 .bss._ZZN12ListRegistryI28krnl_ProgrammedResetObserverE9get_firstEvE11local_first
                0x00803b7a        0x4 prom/krnl_reset.o
                0x00803b7a                ListRegistry<krnl_ProgrammedResetObserver>::get_first()::local_first
 *fill*         0x00803b7e        0x2 00
 .bss           0x00803b80     0x1200 prom/cclock.o
                0x00803b80                clkq
 .bss           0x00804d80       0x24 prom/cmbox.o
                0x00804d80                mheader
 .bss           0x00804da4       0x26 prom/cpart.o
                0x00804da4                pheader
 *fill*         0x00804dca        0x2 00
 .bss           0x00804dcc      0x39e prom/cqueue.o
                0x00805098                qkheader
                0x00804dcc                nqueues
                0x00804dce                qheader
 *fill*         0x0080516a        0x2 00
 .bss           0x0080516c     0x1a1c prom/cres.o
                0x0080516c                nres
                0x0080516e                rheader
 .bss           0x00806b88      0x224 prom/csema.o
                0x00806b88                siglist
                0x00806ba8                semat
 .bss           0x00806dac     0x18d0 prom/ctask.o
                0x00806dac                rtxtcb
 .bss           0x0080867c        0x0 prom/format.o
 .bss           0x0080867c       0x74 prom/rtxcbug.o
                0x00808684                a5_var
                0x00808680                a4_var
                0x0080867c                goflag
 .bss           0x008086f0     0x103b prom/rtxc.o
                0x0080870c                rtctick
                0x00808720                isrcnt
                0x008086f0                SemaOverFlow
                0x00808700                semaget
                0x00808708                dphfl
                0x00808716                clkqptr
                0x008086fc                semaput
                0x0080871e                cbugflag
                0x00808704                dtcbfl
                0x00808722                xintlvl
                0x0080871f                isrmax
                0x0080870e                rtctime
                0x00809724                ks_stk_flg
                0x0080871a                sliceup
                0x008086f4                hipritsk
                0x00808712                clkqfl
                0x00808724                rtxctos
                0x008086f8                nsrttcb
 *fill*         0x0080972b        0x1 00
 .bss           0x0080972c        0x0 prom/rtxcapi.o
 .bss           0x0080972c        0x0 prom/rtxcinit.o
 .bss           0x0080972c        0x0 prom/setvect.o
 .bss           0x0080972c        0x0 prom/rtxcasm.o
 .bss           0x0080972c        0x0 prom/krnl_adef.o
 .bss           0x0080972c        0x0 prom/krnl_sastd.o
 .bss           0x0080972c      0x212 prom/krnl_sasto.o
                0x0080972c                krnl_SimpleAssertStorage__entry
 *fill*         0x0080993e        0x2 00
 .bss           0x00809940        0x4 prom/krnl_satst.o
 .bss           0x00809944       0x10 prom/krnl_scires.o
 .bss           0x00809954       0x4c prom/krnl_scidrv_m.o
                0x00809954                krnl_SciDriver::s_instancePtr
 .bss           0x008099a0        0x0 prom/krnl_sciisr_m.o
 .bss           0x008099a0        0x0 prom/krnl_heap_m.o
 .bss           0x008099a0       0x1c prom/krnl_init_m.o
                0x008099a0                krnl_baudRate
 .bss           0x008099bc        0x4 prom/krnl_rclk_m.o
                0x008099bc                krnl_RtxcClockTick
 .bss._ZZN12ListRegistryI22krnl_RtxcClockCallbackE9get_firstEvE11local_first
                0x008099c0        0x4 prom/krnl_rclk_m.o
                0x008099c0                ListRegistry<krnl_RtxcClockCallback>::get_first()::local_first
 .bss           0x008099c4        0x0 prom/krnl_rclkasm_m.o
 .bss           0x008099c4        0x0 prom/krnl_unex_m.o
 .bss           0x008099c4        0x4 prom/krnl_trcchnl.o
 .bss           0x008099c8        0x0 prom/entry.o
 .bss           0x008099c8       0x4c prom/entry_hooks.o
                0x008099cc                core_bootloaderVersionString
                0x008099c8                core_bootloaderInterfaceVersion
 .bss           0x00809a14       0x15 prom/ccbw_int.o
                0x00809a14                ccbw_Interrupts::s_instancePtr
 *fill*         0x00809a29        0x3 00
 .bss           0x00809a2c        0x0 prom/ccbw_intasm.o
 .bss           0x00809a2c        0x0 prom/ccbw_latch.o
 .bss           0x00809a2c       0x12 prom/ccbw_outl0.o
 *fill*         0x00809a3e        0x2 00
 .bss           0x00809a40       0x12 prom/ccbw_outl1.o
 *fill*         0x00809a52        0x2 00
 .bss           0x00809a54       0x12 prom/ccbw_outl2.o
 *fill*         0x00809a66        0x2 00
 .bss           0x00809a68       0x18 prom/cppmain.o
 .bss           0x00809a80       0x16 prom/EEPromOnB.o
 *fill*         0x00809a96        0x2 00
 .bss           0x00809a98        0x0 prom/EEProm.o
 .bss           0x00809a98        0x0 prom/listreg.o
 .bss           0x00809a98       0x19 prom/nctrl_resetcmd.o
 *fill*         0x00809ab1        0x3 00
 .bss           0x00809ab4        0x8 prom/softfloat.o
                0x00809ab8                float_exception_flags
                0x00809ab4                float_rounding_mode
 .bss           0x00809abc        0x0 prom/softfloatmap.o
 .bss           0x00809abc        0x0 D:\synergy\ccm_wa\tmbo\ME_ECS\HMI_devel-tmbo_bes_1211\HMI_devel\gnuc\bes\lib\gcc\m68k-bes-rtems4.9\4.3.2\mcpu32/crtend.o
 .bss           0x00809abc        0x0 D:\synergy\ccm_wa\tmbo\ME_ECS\HMI_devel-tmbo_bes_1211\HMI_devel\gnuc\bes\m68k-bes-rtems4.9\lib\mcpu32/libstdc++.a(class_type_info.o)
 .bss           0x00809abc        0x0 D:\synergy\ccm_wa\tmbo\ME_ECS\HMI_devel-tmbo_bes_1211\HMI_devel\gnuc\bes\m68k-bes-rtems4.9\lib\mcpu32/libstdc++.a(del_opv.o)
 .bss           0x00809abc        0x0 D:\synergy\ccm_wa\tmbo\ME_ECS\HMI_devel-tmbo_bes_1211\HMI_devel\gnuc\bes\m68k-bes-rtems4.9\lib\mcpu32/libstdc++.a(new_opv.o)
 .bss           0x00809abc        0x0 D:\synergy\ccm_wa\tmbo\ME_ECS\HMI_devel-tmbo_bes_1211\HMI_devel\gnuc\bes\m68k-bes-rtems4.9\lib\mcpu32/libstdc++.a(si_class_type_info.o)
 .bss           0x00809abc        0x0 D:\synergy\ccm_wa\tmbo\ME_ECS\HMI_devel-tmbo_bes_1211\HMI_devel\gnuc\bes\m68k-bes-rtems4.9\lib\mcpu32/libstdc++.a(tinfo.o)
 .bss           0x00809abc        0x0 D:\synergy\ccm_wa\tmbo\ME_ECS\HMI_devel-tmbo_bes_1211\HMI_devel\gnuc\bes\m68k-bes-rtems4.9\lib\mcpu32/libstdc++.a(vmi_class_type_info.o)
 .bss           0x00809abc        0x0 D:\synergy\ccm_wa\tmbo\ME_ECS\HMI_devel-tmbo_bes_1211\HMI_devel\gnuc\bes\m68k-bes-rtems4.9\lib\mcpu32/libm.a(lib_a-s_floor.o)
 .bss           0x00809abc        0x0 D:\synergy\ccm_wa\tmbo\ME_ECS\HMI_devel-tmbo_bes_1211\HMI_devel\gnuc\bes\m68k-bes-rtems4.9\lib\mcpu32/libm.a(lib_a-w_sqrt.o)
 .bss           0x00809abc        0x0 D:\synergy\ccm_wa\tmbo\ME_ECS\HMI_devel-tmbo_bes_1211\HMI_devel\gnuc\bes\m68k-bes-rtems4.9\lib\mcpu32/libm.a(lib_a-e_sqrt.o)
 .bss           0x00809abc        0x0 D:\synergy\ccm_wa\tmbo\ME_ECS\HMI_devel-tmbo_bes_1211\HMI_devel\gnuc\bes\m68k-bes-rtems4.9\lib\mcpu32/libm.a(lib_a-s_isnand.o)
 .bss           0x00809abc        0x0 D:\synergy\ccm_wa\tmbo\ME_ECS\HMI_devel-tmbo_bes_1211\HMI_devel\gnuc\bes\m68k-bes-rtems4.9\lib\mcpu32/libm.a(lib_a-s_lib_ver.o)
 .bss           0x00809abc        0x0 D:\synergy\ccm_wa\tmbo\ME_ECS\HMI_devel-tmbo_bes_1211\HMI_devel\gnuc\bes\m68k-bes-rtems4.9\lib\mcpu32/libm.a(lib_a-s_matherr.o)
 .bss           0x00809abc        0x0 D:\synergy\ccm_wa\tmbo\ME_ECS\HMI_devel-tmbo_bes_1211\HMI_devel\gnuc\bes\lib\gcc\m68k-bes-rtems4.9\4.3.2\mcpu32/libgcc.a(_double.o)
 .bss           0x00809abc        0x0 D:\synergy\ccm_wa\tmbo\ME_ECS\HMI_devel-tmbo_bes_1211\HMI_devel\gnuc\bes\lib\gcc\m68k-bes-rtems4.9\4.3.2\mcpu32/libgcc.a(_float.o)
 .bss           0x00809abc        0x0 D:\synergy\ccm_wa\tmbo\ME_ECS\HMI_devel-tmbo_bes_1211\HMI_devel\gnuc\bes\lib\gcc\m68k-bes-rtems4.9\4.3.2\mcpu32/libgcc.a(_floatex.o)
 .bss           0x00809abc        0x0 D:\synergy\ccm_wa\tmbo\ME_ECS\HMI_devel-tmbo_bes_1211\HMI_devel\gnuc\bes\lib\gcc\m68k-bes-rtems4.9\4.3.2\mcpu32/libgcc.a(_gtdf2.o)
 .bss           0x00809abc        0x0 D:\synergy\ccm_wa\tmbo\ME_ECS\HMI_devel-tmbo_bes_1211\HMI_devel\gnuc\bes\lib\gcc\m68k-bes-rtems4.9\4.3.2\mcpu32/libgcc.a(_ltdf2.o)
 .bss           0x00809abc        0x0 D:\synergy\ccm_wa\tmbo\ME_ECS\HMI_devel-tmbo_bes_1211\HMI_devel\gnuc\bes\lib\gcc\m68k-bes-rtems4.9\4.3.2\mcpu32/libgcc.a(fpgnulib.o)
 .bss           0x00809abc        0x0 D:\synergy\ccm_wa\tmbo\ME_ECS\HMI_devel-tmbo_bes_1211\HMI_devel\gnuc\bes\m68k-bes-rtems4.9\lib\mcpu32/libc.a(lib_a-abs.o)
 .bss           0x00809abc        0x0 D:\synergy\ccm_wa\tmbo\ME_ECS\HMI_devel-tmbo_bes_1211\HMI_devel\gnuc\bes\m68k-bes-rtems4.9\lib\mcpu32/libc.a(lib_a-atexit.o)
 .bss           0x00809abc        0x0 D:\synergy\ccm_wa\tmbo\ME_ECS\HMI_devel-tmbo_bes_1211\HMI_devel\gnuc\bes\m68k-bes-rtems4.9\lib\mcpu32/libc.a(lib_a-atoi.o)
 .bss           0x00809abc        0x0 D:\synergy\ccm_wa\tmbo\ME_ECS\HMI_devel-tmbo_bes_1211\HMI_devel\gnuc\bes\m68k-bes-rtems4.9\lib\mcpu32/libc.a(lib_a-errno.o)
 .bss           0x00809abc        0x0 D:\synergy\ccm_wa\tmbo\ME_ECS\HMI_devel-tmbo_bes_1211\HMI_devel\gnuc\bes\m68k-bes-rtems4.9\lib\mcpu32/libc.a(lib_a-exit.o)
 .bss           0x00809abc        0x0 D:\synergy\ccm_wa\tmbo\ME_ECS\HMI_devel-tmbo_bes_1211\HMI_devel\gnuc\bes\m68k-bes-rtems4.9\lib\mcpu32/libc.a(lib_a-impure.o)
 .bss           0x00809abc        0x0 D:\synergy\ccm_wa\tmbo\ME_ECS\HMI_devel-tmbo_bes_1211\HMI_devel\gnuc\bes\m68k-bes-rtems4.9\lib\mcpu32/libc.a(lib_a-init.o)
 .bss           0x00809abc        0x0 D:\synergy\ccm_wa\tmbo\ME_ECS\HMI_devel-tmbo_bes_1211\HMI_devel\gnuc\bes\m68k-bes-rtems4.9\lib\mcpu32/libc.a(lib_a-memset.o)
 .bss           0x00809abc        0x0 D:\synergy\ccm_wa\tmbo\ME_ECS\HMI_devel-tmbo_bes_1211\HMI_devel\gnuc\bes\m68k-bes-rtems4.9\lib\mcpu32/libc.a(lib_a-sprintf.o)
 .bss           0x00809abc        0x0 D:\synergy\ccm_wa\tmbo\ME_ECS\HMI_devel-tmbo_bes_1211\HMI_devel\gnuc\bes\m68k-bes-rtems4.9\lib\mcpu32/libc.a(lib_a-strcmp.o)
 .bss           0x00809abc        0x0 D:\synergy\ccm_wa\tmbo\ME_ECS\HMI_devel-tmbo_bes_1211\HMI_devel\gnuc\bes\m68k-bes-rtems4.9\lib\mcpu32/libc.a(lib_a-strcpy.o)
 .bss           0x00809abc        0x0 D:\synergy\ccm_wa\tmbo\ME_ECS\HMI_devel-tmbo_bes_1211\HMI_devel\gnuc\bes\m68k-bes-rtems4.9\lib\mcpu32/libc.a(lib_a-strlen.o)
 .bss           0x00809abc        0x0 D:\synergy\ccm_wa\tmbo\ME_ECS\HMI_devel-tmbo_bes_1211\HMI_devel\gnuc\bes\m68k-bes-rtems4.9\lib\mcpu32/libc.a(lib_a-strncmp.o)
 .bss           0x00809abc        0x0 D:\synergy\ccm_wa\tmbo\ME_ECS\HMI_devel-tmbo_bes_1211\HMI_devel\gnuc\bes\m68k-bes-rtems4.9\lib\mcpu32/libc.a(lib_a-strtol.o)
 .bss           0x00809abc        0x0 D:\synergy\ccm_wa\tmbo\ME_ECS\HMI_devel-tmbo_bes_1211\HMI_devel\gnuc\bes\m68k-bes-rtems4.9\lib\mcpu32/libc.a(lib_a-vfprintf.o)
 .bss           0x00809abc        0x0 D:\synergy\ccm_wa\tmbo\ME_ECS\HMI_devel-tmbo_bes_1211\HMI_devel\gnuc\bes\m68k-bes-rtems4.9\lib\mcpu32/libc.a(lib_a-vsprintf.o)
 .bss           0x00809abc        0x0 D:\synergy\ccm_wa\tmbo\ME_ECS\HMI_devel-tmbo_bes_1211\HMI_devel\gnuc\bes\m68k-bes-rtems4.9\lib\mcpu32/libc.a(lib_a-wsetup.o)
 .bss           0x00809abc        0x0 D:\synergy\ccm_wa\tmbo\ME_ECS\HMI_devel-tmbo_bes_1211\HMI_devel\gnuc\bes\m68k-bes-rtems4.9\lib\mcpu32/libc.a(lib_a-__atexit.o)
 .bss           0x00809abc        0x0 D:\synergy\ccm_wa\tmbo\ME_ECS\HMI_devel-tmbo_bes_1211\HMI_devel\gnuc\bes\m68k-bes-rtems4.9\lib\mcpu32/libc.a(lib_a-__call_atexit.o)
 .bss           0x00809abc        0x0 D:\synergy\ccm_wa\tmbo\ME_ECS\HMI_devel-tmbo_bes_1211\HMI_devel\gnuc\bes\m68k-bes-rtems4.9\lib\mcpu32/libc.a(lib_a-ctype_.o)
 .bss           0x00809abc        0x0 D:\synergy\ccm_wa\tmbo\ME_ECS\HMI_devel-tmbo_bes_1211\HMI_devel\gnuc\bes\m68k-bes-rtems4.9\lib\mcpu32/libc.a(lib_a-dtoa.o)
 .bss           0x00809abc        0x0 D:\synergy\ccm_wa\tmbo\ME_ECS\HMI_devel-tmbo_bes_1211\HMI_devel\gnuc\bes\m68k-bes-rtems4.9\lib\mcpu32/libc.a(lib_a-fflush.o)
 .bss           0x00809abc        0x0 D:\synergy\ccm_wa\tmbo\ME_ECS\HMI_devel-tmbo_bes_1211\HMI_devel\gnuc\bes\m68k-bes-rtems4.9\lib\mcpu32/libc.a(lib_a-findfp.o)
 .bss           0x00809abc        0x0 D:\synergy\ccm_wa\tmbo\ME_ECS\HMI_devel-tmbo_bes_1211\HMI_devel\gnuc\bes\m68k-bes-rtems4.9\lib\mcpu32/libc.a(lib_a-fvwrite.o)
 .bss           0x00809abc        0x0 D:\synergy\ccm_wa\tmbo\ME_ECS\HMI_devel-tmbo_bes_1211\HMI_devel\gnuc\bes\m68k-bes-rtems4.9\lib\mcpu32/libc.a(lib_a-fwalk.o)
 .bss           0x00809abc        0xc D:\synergy\ccm_wa\tmbo\ME_ECS\HMI_devel-tmbo_bes_1211\HMI_devel\gnuc\bes\m68k-bes-rtems4.9\lib\mcpu32/libc.a(lib_a-locale.o)
                0x00809abc                __nlocale_changed
                0x00809ac0                __mlocale_changed
                0x00809ac4                _PathLocale
 .bss           0x00809ac8        0x0 D:\synergy\ccm_wa\tmbo\ME_ECS\HMI_devel-tmbo_bes_1211\HMI_devel\gnuc\bes\m68k-bes-rtems4.9\lib\mcpu32/libc.a(lib_a-makebuf.o)
 .bss           0x00809ac8        0x0 D:\synergy\ccm_wa\tmbo\ME_ECS\HMI_devel-tmbo_bes_1211\HMI_devel\gnuc\bes\m68k-bes-rtems4.9\lib\mcpu32/libc.a(lib_a-memchr.o)
 .bss           0x00809ac8        0x0 D:\synergy\ccm_wa\tmbo\ME_ECS\HMI_devel-tmbo_bes_1211\HMI_devel\gnuc\bes\m68k-bes-rtems4.9\lib\mcpu32/libc.a(lib_a-memmove.o)
 .bss           0x00809ac8        0x0 D:\synergy\ccm_wa\tmbo\ME_ECS\HMI_devel-tmbo_bes_1211\HMI_devel\gnuc\bes\m68k-bes-rtems4.9\lib\mcpu32/libc.a(lib_a-mprec.o)
 .bss           0x00809ac8        0x0 D:\synergy\ccm_wa\tmbo\ME_ECS\HMI_devel-tmbo_bes_1211\HMI_devel\gnuc\bes\m68k-bes-rtems4.9\lib\mcpu32/libc.a(lib_a-s_frexp.o)
 .bss           0x00809ac8        0x0 D:\synergy\ccm_wa\tmbo\ME_ECS\HMI_devel-tmbo_bes_1211\HMI_devel\gnuc\bes\m68k-bes-rtems4.9\lib\mcpu32/libc.a(lib_a-s_isinfd.o)
 .bss           0x00809ac8        0x0 D:\synergy\ccm_wa\tmbo\ME_ECS\HMI_devel-tmbo_bes_1211\HMI_devel\gnuc\bes\m68k-bes-rtems4.9\lib\mcpu32/libc.a(lib_a-stdio.o)
 .bss           0x00809ac8        0x0 D:\synergy\ccm_wa\tmbo\ME_ECS\HMI_devel-tmbo_bes_1211\HMI_devel\gnuc\bes\m68k-bes-rtems4.9\lib\mcpu32/libc.a(lib_a-fclose.o)
 .bss           0x00809ac8        0x0 D:\synergy\ccm_wa\tmbo\ME_ECS\HMI_devel-tmbo_bes_1211\HMI_devel\gnuc\bes\lib\gcc\m68k-bes-rtems4.9\4.3.2\mcpu32/libgcc.a(_eqdf2.o)
 .bss           0x00809ac8        0x0 D:\synergy\ccm_wa\tmbo\ME_ECS\HMI_devel-tmbo_bes_1211\HMI_devel\gnuc\bes\lib\gcc\m68k-bes-rtems4.9\4.3.2\mcpu32/libgcc.a(_nedf2.o)
 .bss           0x00809ac8        0x0 D:\synergy\ccm_wa\tmbo\ME_ECS\HMI_devel-tmbo_bes_1211\HMI_devel\gnuc\bes\lib\gcc\m68k-bes-rtems4.9\4.3.2\mcpu32/libgcc.a(_gedf2.o)
 .bss           0x00809ac8        0x0 D:\synergy\ccm_wa\tmbo\ME_ECS\HMI_devel-tmbo_bes_1211\HMI_devel\gnuc\bes\lib\gcc\m68k-bes-rtems4.9\4.3.2\mcpu32/libgcc.a(_udivdi3.o)
 .bss           0x00809ac8        0x0 D:\synergy\ccm_wa\tmbo\ME_ECS\HMI_devel-tmbo_bes_1211\HMI_devel\gnuc\bes\lib\gcc\m68k-bes-rtems4.9\4.3.2\mcpu32/libgcc.a(_umoddi3.o)
 .bss           0x00809ac8        0x0 D:\synergy\ccm_wa\tmbo\ME_ECS\HMI_devel-tmbo_bes_1211\HMI_devel\gnuc\bes\lib\gcc\m68k-bes-rtems4.9\4.3.2\mcpu32/libgcc.a(xfgnulib.o)
 .bss           0x00809ac8        0x0 D:\synergy\ccm_wa\tmbo\ME_ECS\HMI_devel-tmbo_bes_1211\HMI_devel\gnuc\bes\lib\gcc\m68k-bes-rtems4.9\4.3.2\mcpu32/libgcc.a(_clz.o)
 *(COMMON)
                0x00809ac8                _ebss = .
                0x00809ac8                _end = .

heap            0x00809ac8   0x100004 load address 0x0012e630
 *(heap)
 heap           0x00809ac8        0x4 prom/entry.o
                0x00809ac8                _HEAP
                0x00909acc                . = (. + _heapsize)
 *fill*         0x00809acc   0x100000 00
                0x00909acc                _heapend = .
                0x00809ac8                PROVIDE (_heap, _end)
LOAD D:\synergy\ccm_wa\tmbo\ME_ECS\HMI_devel-tmbo_bes_1211\HMI_devel\gnuc\bes\lib\gcc\m68k-bes-rtems4.9\4.3.2\mcpu32/crtbegin.o
LOAD prom/testsoftfloat.o
LOAD prom/remainder.o
LOAD prom/runsf.o
LOAD prom/rtl.o
LOAD prom/new.o
LOAD prom/co_bitset.o
LOAD prom/crc32.o
LOAD prom/crc.o
LOAD prom/flsh_bios_amd.o
LOAD prom/flsh_bios_intel.o
LOAD prom/flsh_device.o
LOAD prom/flsh_device_amd.o
LOAD prom/flsh_device_intel.o
LOAD prom/flsh_device_ram.o
LOAD prom/flsh_manager.o
LOAD prom/flsh_memory.o
LOAD prom/krnl_astd.o
LOAD prom/krnl_atst.o
LOAD prom/krnl_alog.o
LOAD prom/krnl_aseq.o
LOAD prom/krnl_asto.o
LOAD prom/krnl_prmtst.o
LOAD prom/krnl_xwdh.o
LOAD prom/krnl_sngltn.o
LOAD prom/krnl_time.o
LOAD prom/krnl_epilog.o
LOAD prom/krnl_clkfrq.o
LOAD prom/krnl_evt.o
LOAD prom/krnl_evtasm.o
LOAD prom/krnl_intwd.o
LOAD prom/krnl_pit.o
LOAD prom/krnl_sci.o
LOAD prom/krnl_xcptin.o
LOAD prom/cbw_extwd.o
LOAD prom/cbw_inl.o
LOAD prom/cbw_outl.o
LOAD prom/cbw_outl3.o
LOAD prom/krnl_flmem.o
LOAD prom/krnl_flpar.o
LOAD prom/krnl_flstr.o
LOAD prom/krnl_stores.o
LOAD prom/krnl_rtc.o
LOAD prom/krnl_nclk_r.o
LOAD prom/krnl_ntime_r.o
LOAD prom/krnl_crttsk.o
LOAD prom/krnl_otmr.o
LOAD prom/krnl_stask.o
LOAD prom/krnl_crtreg_r.o
LOAD prom/krnl_curtask_r.o
LOAD prom/krnl_otmr_r.o
LOAD prom/krnl_queue_r.o
LOAD prom/krnl_res_r.o
LOAD prom/krnl_sema_r.o
LOAD prom/krnl_task_r.o
LOAD prom/krnl_taskid_r.o
LOAD prom/krnl_wait_r.o
LOAD prom/krnl_reset.o
LOAD prom/cclock.o
LOAD prom/cmbox.o
LOAD prom/cpart.o
LOAD prom/cqueue.o
LOAD prom/cres.o
LOAD prom/csema.o
LOAD prom/ctask.o
LOAD prom/format.o
LOAD prom/rtxcbug.o
LOAD prom/rtxc.o
LOAD prom/rtxcapi.o
LOAD prom/rtxcinit.o
LOAD prom/setvect.o
LOAD prom/rtxcasm.o
LOAD prom/krnl_adef.o
LOAD prom/krnl_sastd.o
LOAD prom/krnl_sasto.o
LOAD prom/krnl_satst.o
LOAD prom/krnl_scires.o
LOAD prom/krnl_scidrv_m.o
LOAD prom/krnl_sciisr_m.o
LOAD prom/krnl_heap_m.o
LOAD prom/krnl_init_m.o
LOAD prom/krnl_rclk_m.o
LOAD prom/krnl_rclkasm_m.o
LOAD prom/krnl_unex_m.o
LOAD prom/krnl_trcchnl.o
LOAD prom/entry.o
LOAD prom/entry_hooks.o
LOAD prom/ccbw_int.o
LOAD prom/ccbw_intasm.o
LOAD prom/ccbw_latch.o
LOAD prom/ccbw_outl0.o
LOAD prom/ccbw_outl1.o
LOAD prom/ccbw_outl2.o
LOAD prom/cppmain.o
LOAD prom/EEPromOnB.o
LOAD prom/EEProm.o
LOAD prom/listreg.o
LOAD prom/nctrl_resetcmd.o
LOAD prom/softfloat.o
LOAD prom/softfloatmap.o
LOAD D:\synergy\ccm_wa\tmbo\ME_ECS\HMI_devel-tmbo_bes_1211\HMI_devel\gnuc\bes\lib\gcc\m68k-bes-rtems4.9\4.3.2\mcpu32/crtend.o
LOAD D:\synergy\ccm_wa\tmbo\ME_ECS\HMI_devel-tmbo_bes_1211\HMI_devel\gnuc\bes\m68k-bes-rtems4.9\lib\mcpu32/libstdc++.a
LOAD D:\synergy\ccm_wa\tmbo\ME_ECS\HMI_devel-tmbo_bes_1211\HMI_devel\gnuc\bes\m68k-bes-rtems4.9\lib\mcpu32/libm.a
LOAD D:\synergy\ccm_wa\tmbo\ME_ECS\HMI_devel-tmbo_bes_1211\HMI_devel\gnuc\bes\lib\gcc\m68k-bes-rtems4.9\4.3.2\mcpu32/libgcc.a
LOAD D:\synergy\ccm_wa\tmbo\ME_ECS\HMI_devel-tmbo_bes_1211\HMI_devel\gnuc\bes\m68k-bes-rtems4.9\lib\mcpu32/libc.a
LOAD D:\synergy\ccm_wa\tmbo\ME_ECS\HMI_devel-tmbo_bes_1211\HMI_devel\gnuc\bes\lib\gcc\m68k-bes-rtems4.9\4.3.2\mcpu32/libgcc.a
OUTPUT(prom_gnu.abs elf32-m68k)

.comment        0x00000000      0xa7a
 .comment       0x00000000       0x12 D:\synergy\ccm_wa\tmbo\ME_ECS\HMI_devel-tmbo_bes_1211\HMI_devel\gnuc\bes\lib\gcc\m68k-bes-rtems4.9\4.3.2\mcpu32/crtbegin.o
 .comment       0x00000012       0x12 prom/testsoftfloat.o
 .comment       0x00000024       0x12 prom/remainder.o
 .comment       0x00000036       0x12 prom/runsf.o
 .comment       0x00000048       0x12 prom/rtl.o
 .comment       0x0000005a       0x12 prom/new.o
 .comment       0x0000006c       0x12 prom/co_bitset.o
 .comment       0x0000007e       0x12 prom/crc32.o
 .comment       0x00000090       0x12 prom/crc.o
 .comment       0x000000a2       0x12 prom/flsh_bios_amd.o
 .comment       0x000000b4       0x12 prom/flsh_bios_intel.o
 .comment       0x000000c6       0x12 prom/flsh_device.o
 .comment       0x000000d8       0x12 prom/flsh_device_amd.o
 .comment       0x000000ea       0x12 prom/flsh_device_intel.o
 .comment       0x000000fc       0x12 prom/flsh_device_ram.o
 .comment       0x0000010e       0x12 prom/flsh_manager.o
 .comment       0x00000120       0x12 prom/flsh_memory.o
 .comment       0x00000132       0x12 prom/krnl_astd.o
 .comment       0x00000144       0x12 prom/krnl_atst.o
 .comment       0x00000156       0x12 prom/krnl_alog.o
 .comment       0x00000168       0x12 prom/krnl_aseq.o
 .comment       0x0000017a       0x12 prom/krnl_asto.o
 .comment       0x0000018c       0x12 prom/krnl_prmtst.o
 .comment       0x0000019e       0x12 prom/krnl_xwdh.o
 .comment       0x000001b0       0x12 prom/krnl_sngltn.o
 .comment       0x000001c2       0x12 prom/krnl_time.o
 .comment       0x000001d4       0x12 prom/krnl_epilog.o
 .comment       0x000001e6       0x12 prom/krnl_clkfrq.o
 .comment       0x000001f8       0x12 prom/krnl_evt.o
 .comment       0x0000020a       0x12 prom/krnl_intwd.o
 .comment       0x0000021c       0x12 prom/krnl_pit.o
 .comment       0x0000022e       0x12 prom/krnl_sci.o
 .comment       0x00000240       0x12 prom/krnl_xcptin.o
 .comment       0x00000252       0x12 prom/cbw_extwd.o
 .comment       0x00000264       0x12 prom/cbw_inl.o
 .comment       0x00000276       0x12 prom/cbw_outl.o
 .comment       0x00000288       0x12 prom/cbw_outl3.o
 .comment       0x0000029a       0x12 prom/krnl_flmem.o
 .comment       0x000002ac       0x12 prom/krnl_flpar.o
 .comment       0x000002be       0x12 prom/krnl_flstr.o
 .comment       0x000002d0       0x12 prom/krnl_stores.o
 .comment       0x000002e2       0x12 prom/krnl_rtc.o
 .comment       0x000002f4       0x12 prom/krnl_nclk_r.o
 .comment       0x00000306       0x12 prom/krnl_ntime_r.o
 .comment       0x00000318       0x12 prom/krnl_crttsk.o
 .comment       0x0000032a       0x12 prom/krnl_otmr.o
 .comment       0x0000033c       0x12 prom/krnl_stask.o
 .comment       0x0000034e       0x12 prom/krnl_crtreg_r.o
 .comment       0x00000360       0x12 prom/krnl_curtask_r.o
 .comment       0x00000372       0x12 prom/krnl_otmr_r.o
 .comment       0x00000384       0x12 prom/krnl_queue_r.o
 .comment       0x00000396       0x12 prom/krnl_res_r.o
 .comment       0x000003a8       0x12 prom/krnl_sema_r.o
 .comment       0x000003ba       0x12 prom/krnl_task_r.o
 .comment       0x000003cc       0x12 prom/krnl_taskid_r.o
 .comment       0x000003de       0x12 prom/krnl_wait_r.o
 .comment       0x000003f0       0x12 prom/krnl_reset.o
 .comment       0x00000402       0x12 prom/cclock.o
 .comment       0x00000414       0x12 prom/cmbox.o
 .comment       0x00000426       0x12 prom/cpart.o
 .comment       0x00000438       0x12 prom/cqueue.o
 .comment       0x0000044a       0x12 prom/cres.o
 .comment       0x0000045c       0x12 prom/csema.o
 .comment       0x0000046e       0x12 prom/ctask.o
 .comment       0x00000480       0x12 prom/format.o
 .comment       0x00000492       0x12 prom/rtxcbug.o
 .comment       0x000004a4       0x12 prom/rtxc.o
 .comment       0x000004b6       0x12 prom/rtxcapi.o
 .comment       0x000004c8       0x12 prom/rtxcinit.o
 .comment       0x000004da       0x12 prom/setvect.o
 .comment       0x000004ec       0x12 prom/krnl_adef.o
 .comment       0x000004fe       0x12 prom/krnl_sastd.o
 .comment       0x00000510       0x12 prom/krnl_sasto.o
 .comment       0x00000522       0x12 prom/krnl_satst.o
 .comment       0x00000534       0x12 prom/krnl_scires.o
 .comment       0x00000546       0x12 prom/krnl_scidrv_m.o
 .comment       0x00000558       0x12 prom/krnl_sciisr_m.o
 .comment       0x0000056a       0x12 prom/krnl_heap_m.o
 .comment       0x0000057c       0x12 prom/krnl_init_m.o
 .comment       0x0000058e       0x12 prom/krnl_rclk_m.o
 .comment       0x000005a0       0x12 prom/krnl_rclkasm_m.o
 .comment       0x000005b2       0x12 prom/krnl_unex_m.o
 .comment       0x000005c4       0x12 prom/krnl_trcchnl.o
 .comment       0x000005d6       0x12 prom/entry.o
 .comment       0x000005e8       0x12 prom/entry_hooks.o
 .comment       0x000005fa       0x12 prom/ccbw_int.o
 .comment       0x0000060c       0x12 prom/ccbw_intasm.o
 .comment       0x0000061e       0x12 prom/ccbw_latch.o
 .comment       0x00000630       0x12 prom/ccbw_outl0.o
 .comment       0x00000642       0x12 prom/ccbw_outl1.o
 .comment       0x00000654       0x12 prom/ccbw_outl2.o
 .comment       0x00000666       0x12 prom/cppmain.o
 .comment       0x00000678       0x12 prom/EEPromOnB.o
 .comment       0x0000068a       0x12 prom/EEProm.o
 .comment       0x0000069c       0x12 prom/listreg.o
 .comment       0x000006ae       0x12 prom/nctrl_resetcmd.o
 .comment       0x000006c0       0x12 prom/softfloat.o
 .comment       0x000006d2       0x12 prom/softfloatmap.o
 .comment       0x000006e4       0x12 D:\synergy\ccm_wa\tmbo\ME_ECS\HMI_devel-tmbo_bes_1211\HMI_devel\gnuc\bes\lib\gcc\m68k-bes-rtems4.9\4.3.2\mcpu32/crtend.o
 .comment       0x000006f6       0x12 D:\synergy\ccm_wa\tmbo\ME_ECS\HMI_devel-tmbo_bes_1211\HMI_devel\gnuc\bes\m68k-bes-rtems4.9\lib\mcpu32/libstdc++.a(class_type_info.o)
 .comment       0x00000708       0x12 D:\synergy\ccm_wa\tmbo\ME_ECS\HMI_devel-tmbo_bes_1211\HMI_devel\gnuc\bes\m68k-bes-rtems4.9\lib\mcpu32/libstdc++.a(del_opv.o)
 .comment       0x0000071a       0x12 D:\synergy\ccm_wa\tmbo\ME_ECS\HMI_devel-tmbo_bes_1211\HMI_devel\gnuc\bes\m68k-bes-rtems4.9\lib\mcpu32/libstdc++.a(new_opv.o)
 .comment       0x0000072c       0x12 D:\synergy\ccm_wa\tmbo\ME_ECS\HMI_devel-tmbo_bes_1211\HMI_devel\gnuc\bes\m68k-bes-rtems4.9\lib\mcpu32/libstdc++.a(si_class_type_info.o)
 .comment       0x0000073e       0x12 D:\synergy\ccm_wa\tmbo\ME_ECS\HMI_devel-tmbo_bes_1211\HMI_devel\gnuc\bes\m68k-bes-rtems4.9\lib\mcpu32/libstdc++.a(tinfo.o)
 .comment       0x00000750       0x12 D:\synergy\ccm_wa\tmbo\ME_ECS\HMI_devel-tmbo_bes_1211\HMI_devel\gnuc\bes\m68k-bes-rtems4.9\lib\mcpu32/libstdc++.a(vmi_class_type_info.o)
 .comment       0x00000762       0x12 D:\synergy\ccm_wa\tmbo\ME_ECS\HMI_devel-tmbo_bes_1211\HMI_devel\gnuc\bes\m68k-bes-rtems4.9\lib\mcpu32/libm.a(lib_a-s_floor.o)
 .comment       0x00000774       0x12 D:\synergy\ccm_wa\tmbo\ME_ECS\HMI_devel-tmbo_bes_1211\HMI_devel\gnuc\bes\m68k-bes-rtems4.9\lib\mcpu32/libm.a(lib_a-w_sqrt.o)
 .comment       0x00000786       0x12 D:\synergy\ccm_wa\tmbo\ME_ECS\HMI_devel-tmbo_bes_1211\HMI_devel\gnuc\bes\m68k-bes-rtems4.9\lib\mcpu32/libm.a(lib_a-e_sqrt.o)
 .comment       0x00000798       0x12 D:\synergy\ccm_wa\tmbo\ME_ECS\HMI_devel-tmbo_bes_1211\HMI_devel\gnuc\bes\m68k-bes-rtems4.9\lib\mcpu32/libm.a(lib_a-s_isnand.o)
 .comment       0x000007aa       0x12 D:\synergy\ccm_wa\tmbo\ME_ECS\HMI_devel-tmbo_bes_1211\HMI_devel\gnuc\bes\m68k-bes-rtems4.9\lib\mcpu32/libm.a(lib_a-s_lib_ver.o)
 .comment       0x000007bc       0x12 D:\synergy\ccm_wa\tmbo\ME_ECS\HMI_devel-tmbo_bes_1211\HMI_devel\gnuc\bes\m68k-bes-rtems4.9\lib\mcpu32/libm.a(lib_a-s_matherr.o)
 .comment       0x000007ce       0x12 D:\synergy\ccm_wa\tmbo\ME_ECS\HMI_devel-tmbo_bes_1211\HMI_devel\gnuc\bes\lib\gcc\m68k-bes-rtems4.9\4.3.2\mcpu32/libgcc.a(fpgnulib.o)
 .comment       0x000007e0       0x12 D:\synergy\ccm_wa\tmbo\ME_ECS\HMI_devel-tmbo_bes_1211\HMI_devel\gnuc\bes\m68k-bes-rtems4.9\lib\mcpu32/libc.a(lib_a-abs.o)
 .comment       0x000007f2       0x12 D:\synergy\ccm_wa\tmbo\ME_ECS\HMI_devel-tmbo_bes_1211\HMI_devel\gnuc\bes\m68k-bes-rtems4.9\lib\mcpu32/libc.a(lib_a-atexit.o)
 .comment       0x00000804       0x12 D:\synergy\ccm_wa\tmbo\ME_ECS\HMI_devel-tmbo_bes_1211\HMI_devel\gnuc\bes\m68k-bes-rtems4.9\lib\mcpu32/libc.a(lib_a-atoi.o)
 .comment       0x00000816       0x12 D:\synergy\ccm_wa\tmbo\ME_ECS\HMI_devel-tmbo_bes_1211\HMI_devel\gnuc\bes\m68k-bes-rtems4.9\lib\mcpu32/libc.a(lib_a-errno.o)
 .comment       0x00000828       0x12 D:\synergy\ccm_wa\tmbo\ME_ECS\HMI_devel-tmbo_bes_1211\HMI_devel\gnuc\bes\m68k-bes-rtems4.9\lib\mcpu32/libc.a(lib_a-exit.o)
 .comment       0x0000083a       0x12 D:\synergy\ccm_wa\tmbo\ME_ECS\HMI_devel-tmbo_bes_1211\HMI_devel\gnuc\bes\m68k-bes-rtems4.9\lib\mcpu32/libc.a(lib_a-impure.o)
 .comment       0x0000084c       0x12 D:\synergy\ccm_wa\tmbo\ME_ECS\HMI_devel-tmbo_bes_1211\HMI_devel\gnuc\bes\m68k-bes-rtems4.9\lib\mcpu32/libc.a(lib_a-init.o)
 .comment       0x0000085e       0x12 D:\synergy\ccm_wa\tmbo\ME_ECS\HMI_devel-tmbo_bes_1211\HMI_devel\gnuc\bes\m68k-bes-rtems4.9\lib\mcpu32/libc.a(lib_a-sprintf.o)
 .comment       0x00000870       0x12 D:\synergy\ccm_wa\tmbo\ME_ECS\HMI_devel-tmbo_bes_1211\HMI_devel\gnuc\bes\m68k-bes-rtems4.9\lib\mcpu32/libc.a(lib_a-strcmp.o)
 .comment       0x00000882       0x12 D:\synergy\ccm_wa\tmbo\ME_ECS\HMI_devel-tmbo_bes_1211\HMI_devel\gnuc\bes\m68k-bes-rtems4.9\lib\mcpu32/libc.a(lib_a-strcpy.o)
 .comment       0x00000894       0x12 D:\synergy\ccm_wa\tmbo\ME_ECS\HMI_devel-tmbo_bes_1211\HMI_devel\gnuc\bes\m68k-bes-rtems4.9\lib\mcpu32/libc.a(lib_a-strlen.o)
 .comment       0x000008a6       0x12 D:\synergy\ccm_wa\tmbo\ME_ECS\HMI_devel-tmbo_bes_1211\HMI_devel\gnuc\bes\m68k-bes-rtems4.9\lib\mcpu32/libc.a(lib_a-strncmp.o)
 .comment       0x000008b8       0x12 D:\synergy\ccm_wa\tmbo\ME_ECS\HMI_devel-tmbo_bes_1211\HMI_devel\gnuc\bes\m68k-bes-rtems4.9\lib\mcpu32/libc.a(lib_a-strtol.o)
 .comment       0x000008ca       0x12 D:\synergy\ccm_wa\tmbo\ME_ECS\HMI_devel-tmbo_bes_1211\HMI_devel\gnuc\bes\m68k-bes-rtems4.9\lib\mcpu32/libc.a(lib_a-vfprintf.o)
 .comment       0x000008dc       0x12 D:\synergy\ccm_wa\tmbo\ME_ECS\HMI_devel-tmbo_bes_1211\HMI_devel\gnuc\bes\m68k-bes-rtems4.9\lib\mcpu32/libc.a(lib_a-vsprintf.o)
 .comment       0x000008ee       0x12 D:\synergy\ccm_wa\tmbo\ME_ECS\HMI_devel-tmbo_bes_1211\HMI_devel\gnuc\bes\m68k-bes-rtems4.9\lib\mcpu32/libc.a(lib_a-wsetup.o)
 .comment       0x00000900       0x12 D:\synergy\ccm_wa\tmbo\ME_ECS\HMI_devel-tmbo_bes_1211\HMI_devel\gnuc\bes\m68k-bes-rtems4.9\lib\mcpu32/libc.a(lib_a-__atexit.o)
 .comment       0x00000912       0x12 D:\synergy\ccm_wa\tmbo\ME_ECS\HMI_devel-tmbo_bes_1211\HMI_devel\gnuc\bes\m68k-bes-rtems4.9\lib\mcpu32/libc.a(lib_a-__call_atexit.o)
 .comment       0x00000924       0x12 D:\synergy\ccm_wa\tmbo\ME_ECS\HMI_devel-tmbo_bes_1211\HMI_devel\gnuc\bes\m68k-bes-rtems4.9\lib\mcpu32/libc.a(lib_a-ctype_.o)
 .comment       0x00000936       0x12 D:\synergy\ccm_wa\tmbo\ME_ECS\HMI_devel-tmbo_bes_1211\HMI_devel\gnuc\bes\m68k-bes-rtems4.9\lib\mcpu32/libc.a(lib_a-dtoa.o)
 .comment       0x00000948       0x12 D:\synergy\ccm_wa\tmbo\ME_ECS\HMI_devel-tmbo_bes_1211\HMI_devel\gnuc\bes\m68k-bes-rtems4.9\lib\mcpu32/libc.a(lib_a-fflush.o)
 .comment       0x0000095a       0x12 D:\synergy\ccm_wa\tmbo\ME_ECS\HMI_devel-tmbo_bes_1211\HMI_devel\gnuc\bes\m68k-bes-rtems4.9\lib\mcpu32/libc.a(lib_a-findfp.o)
 .comment       0x0000096c       0x12 D:\synergy\ccm_wa\tmbo\ME_ECS\HMI_devel-tmbo_bes_1211\HMI_devel\gnuc\bes\m68k-bes-rtems4.9\lib\mcpu32/libc.a(lib_a-fvwrite.o)
 .comment       0x0000097e       0x12 D:\synergy\ccm_wa\tmbo\ME_ECS\HMI_devel-tmbo_bes_1211\HMI_devel\gnuc\bes\m68k-bes-rtems4.9\lib\mcpu32/libc.a(lib_a-fwalk.o)
 .comment       0x00000990       0x12 D:\synergy\ccm_wa\tmbo\ME_ECS\HMI_devel-tmbo_bes_1211\HMI_devel\gnuc\bes\m68k-bes-rtems4.9\lib\mcpu32/libc.a(lib_a-locale.o)
 .comment       0x000009a2       0x12 D:\synergy\ccm_wa\tmbo\ME_ECS\HMI_devel-tmbo_bes_1211\HMI_devel\gnuc\bes\m68k-bes-rtems4.9\lib\mcpu32/libc.a(lib_a-makebuf.o)
 .comment       0x000009b4       0x12 D:\synergy\ccm_wa\tmbo\ME_ECS\HMI_devel-tmbo_bes_1211\HMI_devel\gnuc\bes\m68k-bes-rtems4.9\lib\mcpu32/libc.a(lib_a-memchr.o)
 .comment       0x000009c6       0x12 D:\synergy\ccm_wa\tmbo\ME_ECS\HMI_devel-tmbo_bes_1211\HMI_devel\gnuc\bes\m68k-bes-rtems4.9\lib\mcpu32/libc.a(lib_a-memmove.o)
 .comment       0x000009d8       0x12 D:\synergy\ccm_wa\tmbo\ME_ECS\HMI_devel-tmbo_bes_1211\HMI_devel\gnuc\bes\m68k-bes-rtems4.9\lib\mcpu32/libc.a(lib_a-mprec.o)
 .comment       0x000009ea       0x12 D:\synergy\ccm_wa\tmbo\ME_ECS\HMI_devel-tmbo_bes_1211\HMI_devel\gnuc\bes\m68k-bes-rtems4.9\lib\mcpu32/libc.a(lib_a-s_frexp.o)
 .comment       0x000009fc       0x12 D:\synergy\ccm_wa\tmbo\ME_ECS\HMI_devel-tmbo_bes_1211\HMI_devel\gnuc\bes\m68k-bes-rtems4.9\lib\mcpu32/libc.a(lib_a-s_isinfd.o)
 .comment       0x00000a0e       0x12 D:\synergy\ccm_wa\tmbo\ME_ECS\HMI_devel-tmbo_bes_1211\HMI_devel\gnuc\bes\m68k-bes-rtems4.9\lib\mcpu32/libc.a(lib_a-stdio.o)
 .comment       0x00000a20       0x12 D:\synergy\ccm_wa\tmbo\ME_ECS\HMI_devel-tmbo_bes_1211\HMI_devel\gnuc\bes\m68k-bes-rtems4.9\lib\mcpu32/libc.a(lib_a-fclose.o)
 .comment       0x00000a32       0x12 D:\synergy\ccm_wa\tmbo\ME_ECS\HMI_devel-tmbo_bes_1211\HMI_devel\gnuc\bes\lib\gcc\m68k-bes-rtems4.9\4.3.2\mcpu32/libgcc.a(_udivdi3.o)
 .comment       0x00000a44       0x12 D:\synergy\ccm_wa\tmbo\ME_ECS\HMI_devel-tmbo_bes_1211\HMI_devel\gnuc\bes\lib\gcc\m68k-bes-rtems4.9\4.3.2\mcpu32/libgcc.a(_umoddi3.o)
 .comment       0x00000a56       0x12 D:\synergy\ccm_wa\tmbo\ME_ECS\HMI_devel-tmbo_bes_1211\HMI_devel\gnuc\bes\lib\gcc\m68k-bes-rtems4.9\4.3.2\mcpu32/libgcc.a(xfgnulib.o)
 .comment       0x00000a68       0x12 D:\synergy\ccm_wa\tmbo\ME_ECS\HMI_devel-tmbo_bes_1211\HMI_devel\gnuc\bes\lib\gcc\m68k-bes-rtems4.9\4.3.2\mcpu32/libgcc.a(_clz.o)

.debug_line     0x00000000      0xd4d
 .debug_line    0x00000000      0x3f9 D:\synergy\ccm_wa\tmbo\ME_ECS\HMI_devel-tmbo_bes_1211\HMI_devel\gnuc\bes\lib\gcc\m68k-bes-rtems4.9\4.3.2\mcpu32/libgcc.a(_double.o)
 .debug_line    0x000003f9      0x2e3 D:\synergy\ccm_wa\tmbo\ME_ECS\HMI_devel-tmbo_bes_1211\HMI_devel\gnuc\bes\lib\gcc\m68k-bes-rtems4.9\4.3.2\mcpu32/libgcc.a(_float.o)
 .debug_line    0x000006dc       0x91 D:\synergy\ccm_wa\tmbo\ME_ECS\HMI_devel-tmbo_bes_1211\HMI_devel\gnuc\bes\lib\gcc\m68k-bes-rtems4.9\4.3.2\mcpu32/libgcc.a(_floatex.o)
 .debug_line    0x0000076d       0x80 D:\synergy\ccm_wa\tmbo\ME_ECS\HMI_devel-tmbo_bes_1211\HMI_devel\gnuc\bes\lib\gcc\m68k-bes-rtems4.9\4.3.2\mcpu32/libgcc.a(_gtdf2.o)
 .debug_line    0x000007ed       0x80 D:\synergy\ccm_wa\tmbo\ME_ECS\HMI_devel-tmbo_bes_1211\HMI_devel\gnuc\bes\lib\gcc\m68k-bes-rtems4.9\4.3.2\mcpu32/libgcc.a(_ltdf2.o)
 .debug_line    0x0000086d       0xb5 D:\synergy\ccm_wa\tmbo\ME_ECS\HMI_devel-tmbo_bes_1211\HMI_devel\gnuc\bes\lib\gcc\m68k-bes-rtems4.9\4.3.2\mcpu32/libgcc.a(fpgnulib.o)
 .debug_line    0x00000922       0x80 D:\synergy\ccm_wa\tmbo\ME_ECS\HMI_devel-tmbo_bes_1211\HMI_devel\gnuc\bes\lib\gcc\m68k-bes-rtems4.9\4.3.2\mcpu32/libgcc.a(_eqdf2.o)
 .debug_line    0x000009a2       0x80 D:\synergy\ccm_wa\tmbo\ME_ECS\HMI_devel-tmbo_bes_1211\HMI_devel\gnuc\bes\lib\gcc\m68k-bes-rtems4.9\4.3.2\mcpu32/libgcc.a(_nedf2.o)
 .debug_line    0x00000a22       0x80 D:\synergy\ccm_wa\tmbo\ME_ECS\HMI_devel-tmbo_bes_1211\HMI_devel\gnuc\bes\lib\gcc\m68k-bes-rtems4.9\4.3.2\mcpu32/libgcc.a(_gedf2.o)
 .debug_line    0x00000aa2       0xb5 D:\synergy\ccm_wa\tmbo\ME_ECS\HMI_devel-tmbo_bes_1211\HMI_devel\gnuc\bes\lib\gcc\m68k-bes-rtems4.9\4.3.2\mcpu32/libgcc.a(_udivdi3.o)
 .debug_line    0x00000b57       0xbe D:\synergy\ccm_wa\tmbo\ME_ECS\HMI_devel-tmbo_bes_1211\HMI_devel\gnuc\bes\lib\gcc\m68k-bes-rtems4.9\4.3.2\mcpu32/libgcc.a(_umoddi3.o)
 .debug_line    0x00000c15       0xd1 D:\synergy\ccm_wa\tmbo\ME_ECS\HMI_devel-tmbo_bes_1211\HMI_devel\gnuc\bes\lib\gcc\m68k-bes-rtems4.9\4.3.2\mcpu32/libgcc.a(xfgnulib.o)
 .debug_line    0x00000ce6       0x67 D:\synergy\ccm_wa\tmbo\ME_ECS\HMI_devel-tmbo_bes_1211\HMI_devel\gnuc\bes\lib\gcc\m68k-bes-rtems4.9\4.3.2\mcpu32/libgcc.a(_clz.o)

.debug_info     0x00000000     0x165b
 .debug_info    0x00000000       0xaf D:\synergy\ccm_wa\tmbo\ME_ECS\HMI_devel-tmbo_bes_1211\HMI_devel\gnuc\bes\lib\gcc\m68k-bes-rtems4.9\4.3.2\mcpu32/libgcc.a(_double.o)
 .debug_info    0x000000af       0xaf D:\synergy\ccm_wa\tmbo\ME_ECS\HMI_devel-tmbo_bes_1211\HMI_devel\gnuc\bes\lib\gcc\m68k-bes-rtems4.9\4.3.2\mcpu32/libgcc.a(_float.o)
 .debug_info    0x0000015e       0xaf D:\synergy\ccm_wa\tmbo\ME_ECS\HMI_devel-tmbo_bes_1211\HMI_devel\gnuc\bes\lib\gcc\m68k-bes-rtems4.9\4.3.2\mcpu32/libgcc.a(_floatex.o)
 .debug_info    0x0000020d       0xaf D:\synergy\ccm_wa\tmbo\ME_ECS\HMI_devel-tmbo_bes_1211\HMI_devel\gnuc\bes\lib\gcc\m68k-bes-rtems4.9\4.3.2\mcpu32/libgcc.a(_gtdf2.o)
 .debug_info    0x000002bc       0xaf D:\synergy\ccm_wa\tmbo\ME_ECS\HMI_devel-tmbo_bes_1211\HMI_devel\gnuc\bes\lib\gcc\m68k-bes-rtems4.9\4.3.2\mcpu32/libgcc.a(_ltdf2.o)
 .debug_info    0x0000036b      0x3cd D:\synergy\ccm_wa\tmbo\ME_ECS\HMI_devel-tmbo_bes_1211\HMI_devel\gnuc\bes\lib\gcc\m68k-bes-rtems4.9\4.3.2\mcpu32/libgcc.a(fpgnulib.o)
 .debug_info    0x00000738       0xaf D:\synergy\ccm_wa\tmbo\ME_ECS\HMI_devel-tmbo_bes_1211\HMI_devel\gnuc\bes\lib\gcc\m68k-bes-rtems4.9\4.3.2\mcpu32/libgcc.a(_eqdf2.o)
 .debug_info    0x000007e7       0xaf D:\synergy\ccm_wa\tmbo\ME_ECS\HMI_devel-tmbo_bes_1211\HMI_devel\gnuc\bes\lib\gcc\m68k-bes-rtems4.9\4.3.2\mcpu32/libgcc.a(_nedf2.o)
 .debug_info    0x00000896       0xaf D:\synergy\ccm_wa\tmbo\ME_ECS\HMI_devel-tmbo_bes_1211\HMI_devel\gnuc\bes\lib\gcc\m68k-bes-rtems4.9\4.3.2\mcpu32/libgcc.a(_gedf2.o)
 .debug_info    0x00000945      0x34c D:\synergy\ccm_wa\tmbo\ME_ECS\HMI_devel-tmbo_bes_1211\HMI_devel\gnuc\bes\lib\gcc\m68k-bes-rtems4.9\4.3.2\mcpu32/libgcc.a(_udivdi3.o)
 .debug_info    0x00000c91      0x356 D:\synergy\ccm_wa\tmbo\ME_ECS\HMI_devel-tmbo_bes_1211\HMI_devel\gnuc\bes\lib\gcc\m68k-bes-rtems4.9\4.3.2\mcpu32/libgcc.a(_umoddi3.o)
 .debug_info    0x00000fe7      0x5a8 D:\synergy\ccm_wa\tmbo\ME_ECS\HMI_devel-tmbo_bes_1211\HMI_devel\gnuc\bes\lib\gcc\m68k-bes-rtems4.9\4.3.2\mcpu32/libgcc.a(xfgnulib.o)
 .debug_info    0x0000158f       0xcc D:\synergy\ccm_wa\tmbo\ME_ECS\HMI_devel-tmbo_bes_1211\HMI_devel\gnuc\bes\lib\gcc\m68k-bes-rtems4.9\4.3.2\mcpu32/libgcc.a(_clz.o)

.debug_abbrev   0x00000000      0x636
 .debug_abbrev  0x00000000       0x14 D:\synergy\ccm_wa\tmbo\ME_ECS\HMI_devel-tmbo_bes_1211\HMI_devel\gnuc\bes\lib\gcc\m68k-bes-rtems4.9\4.3.2\mcpu32/libgcc.a(_double.o)
 .debug_abbrev  0x00000014       0x14 D:\synergy\ccm_wa\tmbo\ME_ECS\HMI_devel-tmbo_bes_1211\HMI_devel\gnuc\bes\lib\gcc\m68k-bes-rtems4.9\4.3.2\mcpu32/libgcc.a(_float.o)
 .debug_abbrev  0x00000028       0x14 D:\synergy\ccm_wa\tmbo\ME_ECS\HMI_devel-tmbo_bes_1211\HMI_devel\gnuc\bes\lib\gcc\m68k-bes-rtems4.9\4.3.2\mcpu32/libgcc.a(_floatex.o)
 .debug_abbrev  0x0000003c       0x14 D:\synergy\ccm_wa\tmbo\ME_ECS\HMI_devel-tmbo_bes_1211\HMI_devel\gnuc\bes\lib\gcc\m68k-bes-rtems4.9\4.3.2\mcpu32/libgcc.a(_gtdf2.o)
 .debug_abbrev  0x00000050       0x14 D:\synergy\ccm_wa\tmbo\ME_ECS\HMI_devel-tmbo_bes_1211\HMI_devel\gnuc\bes\lib\gcc\m68k-bes-rtems4.9\4.3.2\mcpu32/libgcc.a(_ltdf2.o)
 .debug_abbrev  0x00000064      0x164 D:\synergy\ccm_wa\tmbo\ME_ECS\HMI_devel-tmbo_bes_1211\HMI_devel\gnuc\bes\lib\gcc\m68k-bes-rtems4.9\4.3.2\mcpu32/libgcc.a(fpgnulib.o)
 .debug_abbrev  0x000001c8       0x14 D:\synergy\ccm_wa\tmbo\ME_ECS\HMI_devel-tmbo_bes_1211\HMI_devel\gnuc\bes\lib\gcc\m68k-bes-rtems4.9\4.3.2\mcpu32/libgcc.a(_eqdf2.o)
 .debug_abbrev  0x000001dc       0x14 D:\synergy\ccm_wa\tmbo\ME_ECS\HMI_devel-tmbo_bes_1211\HMI_devel\gnuc\bes\lib\gcc\m68k-bes-rtems4.9\4.3.2\mcpu32/libgcc.a(_nedf2.o)
 .debug_abbrev  0x000001f0       0x14 D:\synergy\ccm_wa\tmbo\ME_ECS\HMI_devel-tmbo_bes_1211\HMI_devel\gnuc\bes\lib\gcc\m68k-bes-rtems4.9\4.3.2\mcpu32/libgcc.a(_gedf2.o)
 .debug_abbrev  0x00000204      0x16f D:\synergy\ccm_wa\tmbo\ME_ECS\HMI_devel-tmbo_bes_1211\HMI_devel\gnuc\bes\lib\gcc\m68k-bes-rtems4.9\4.3.2\mcpu32/libgcc.a(_udivdi3.o)
 .debug_abbrev  0x00000373      0x17e D:\synergy\ccm_wa\tmbo\ME_ECS\HMI_devel-tmbo_bes_1211\HMI_devel\gnuc\bes\lib\gcc\m68k-bes-rtems4.9\4.3.2\mcpu32/libgcc.a(_umoddi3.o)
 .debug_abbrev  0x000004f1       0xdb D:\synergy\ccm_wa\tmbo\ME_ECS\HMI_devel-tmbo_bes_1211\HMI_devel\gnuc\bes\lib\gcc\m68k-bes-rtems4.9\4.3.2\mcpu32/libgcc.a(xfgnulib.o)
 .debug_abbrev  0x000005cc       0x6a D:\synergy\ccm_wa\tmbo\ME_ECS\HMI_devel-tmbo_bes_1211\HMI_devel\gnuc\bes\lib\gcc\m68k-bes-rtems4.9\4.3.2\mcpu32/libgcc.a(_clz.o)

.debug_aranges  0x00000000      0x180
 .debug_aranges
                0x00000000       0x20 D:\synergy\ccm_wa\tmbo\ME_ECS\HMI_devel-tmbo_bes_1211\HMI_devel\gnuc\bes\lib\gcc\m68k-bes-rtems4.9\4.3.2\mcpu32/libgcc.a(_double.o)
 .debug_aranges
                0x00000020       0x20 D:\synergy\ccm_wa\tmbo\ME_ECS\HMI_devel-tmbo_bes_1211\HMI_devel\gnuc\bes\lib\gcc\m68k-bes-rtems4.9\4.3.2\mcpu32/libgcc.a(_float.o)
 .debug_aranges
                0x00000040       0x20 D:\synergy\ccm_wa\tmbo\ME_ECS\HMI_devel-tmbo_bes_1211\HMI_devel\gnuc\bes\lib\gcc\m68k-bes-rtems4.9\4.3.2\mcpu32/libgcc.a(_floatex.o)
 .debug_aranges
                0x00000060       0x20 D:\synergy\ccm_wa\tmbo\ME_ECS\HMI_devel-tmbo_bes_1211\HMI_devel\gnuc\bes\lib\gcc\m68k-bes-rtems4.9\4.3.2\mcpu32/libgcc.a(_gtdf2.o)
 .debug_aranges
                0x00000080       0x20 D:\synergy\ccm_wa\tmbo\ME_ECS\HMI_devel-tmbo_bes_1211\HMI_devel\gnuc\bes\lib\gcc\m68k-bes-rtems4.9\4.3.2\mcpu32/libgcc.a(_ltdf2.o)
 .debug_aranges
                0x000000a0       0x20 D:\synergy\ccm_wa\tmbo\ME_ECS\HMI_devel-tmbo_bes_1211\HMI_devel\gnuc\bes\lib\gcc\m68k-bes-rtems4.9\4.3.2\mcpu32/libgcc.a(fpgnulib.o)
 .debug_aranges
                0x000000c0       0x20 D:\synergy\ccm_wa\tmbo\ME_ECS\HMI_devel-tmbo_bes_1211\HMI_devel\gnuc\bes\lib\gcc\m68k-bes-rtems4.9\4.3.2\mcpu32/libgcc.a(_eqdf2.o)
 .debug_aranges
                0x000000e0       0x20 D:\synergy\ccm_wa\tmbo\ME_ECS\HMI_devel-tmbo_bes_1211\HMI_devel\gnuc\bes\lib\gcc\m68k-bes-rtems4.9\4.3.2\mcpu32/libgcc.a(_nedf2.o)
 .debug_aranges
                0x00000100       0x20 D:\synergy\ccm_wa\tmbo\ME_ECS\HMI_devel-tmbo_bes_1211\HMI_devel\gnuc\bes\lib\gcc\m68k-bes-rtems4.9\4.3.2\mcpu32/libgcc.a(_gedf2.o)
 .debug_aranges
                0x00000120       0x20 D:\synergy\ccm_wa\tmbo\ME_ECS\HMI_devel-tmbo_bes_1211\HMI_devel\gnuc\bes\lib\gcc\m68k-bes-rtems4.9\4.3.2\mcpu32/libgcc.a(_udivdi3.o)
 .debug_aranges
                0x00000140       0x20 D:\synergy\ccm_wa\tmbo\ME_ECS\HMI_devel-tmbo_bes_1211\HMI_devel\gnuc\bes\lib\gcc\m68k-bes-rtems4.9\4.3.2\mcpu32/libgcc.a(_umoddi3.o)
 .debug_aranges
                0x00000160       0x20 D:\synergy\ccm_wa\tmbo\ME_ECS\HMI_devel-tmbo_bes_1211\HMI_devel\gnuc\bes\lib\gcc\m68k-bes-rtems4.9\4.3.2\mcpu32/libgcc.a(xfgnulib.o)

.debug_frame    0x00000000      0x578
 .debug_frame   0x00000000      0x13c D:\synergy\ccm_wa\tmbo\ME_ECS\HMI_devel-tmbo_bes_1211\HMI_devel\gnuc\bes\lib\gcc\m68k-bes-rtems4.9\4.3.2\mcpu32/libgcc.a(fpgnulib.o)
 .debug_frame   0x0000013c       0x38 D:\synergy\ccm_wa\tmbo\ME_ECS\HMI_devel-tmbo_bes_1211\HMI_devel\gnuc\bes\lib\gcc\m68k-bes-rtems4.9\4.3.2\mcpu32/libgcc.a(_udivdi3.o)
 .debug_frame   0x00000174       0x38 D:\synergy\ccm_wa\tmbo\ME_ECS\HMI_devel-tmbo_bes_1211\HMI_devel\gnuc\bes\lib\gcc\m68k-bes-rtems4.9\4.3.2\mcpu32/libgcc.a(_umoddi3.o)
 .debug_frame   0x000001ac      0x3cc D:\synergy\ccm_wa\tmbo\ME_ECS\HMI_devel-tmbo_bes_1211\HMI_devel\gnuc\bes\lib\gcc\m68k-bes-rtems4.9\4.3.2\mcpu32/libgcc.a(xfgnulib.o)

.debug_loc      0x00000000     0x1344
 .debug_loc     0x00000000      0x52b D:\synergy\ccm_wa\tmbo\ME_ECS\HMI_devel-tmbo_bes_1211\HMI_devel\gnuc\bes\lib\gcc\m68k-bes-rtems4.9\4.3.2\mcpu32/libgcc.a(fpgnulib.o)
 .debug_loc     0x0000052b      0x376 D:\synergy\ccm_wa\tmbo\ME_ECS\HMI_devel-tmbo_bes_1211\HMI_devel\gnuc\bes\lib\gcc\m68k-bes-rtems4.9\4.3.2\mcpu32/libgcc.a(_udivdi3.o)
 .debug_loc     0x000008a1      0x2cf D:\synergy\ccm_wa\tmbo\ME_ECS\HMI_devel-tmbo_bes_1211\HMI_devel\gnuc\bes\lib\gcc\m68k-bes-rtems4.9\4.3.2\mcpu32/libgcc.a(_umoddi3.o)
 .debug_loc     0x00000b70      0x7d4 D:\synergy\ccm_wa\tmbo\ME_ECS\HMI_devel-tmbo_bes_1211\HMI_devel\gnuc\bes\lib\gcc\m68k-bes-rtems4.9\4.3.2\mcpu32/libgcc.a(xfgnulib.o)

.debug_pubnames
                0x00000000      0x240
 .debug_pubnames
                0x00000000       0xb3 D:\synergy\ccm_wa\tmbo\ME_ECS\HMI_devel-tmbo_bes_1211\HMI_devel\gnuc\bes\lib\gcc\m68k-bes-rtems4.9\4.3.2\mcpu32/libgcc.a(fpgnulib.o)
 .debug_pubnames
                0x000000b3       0x20 D:\synergy\ccm_wa\tmbo\ME_ECS\HMI_devel-tmbo_bes_1211\HMI_devel\gnuc\bes\lib\gcc\m68k-bes-rtems4.9\4.3.2\mcpu32/libgcc.a(_udivdi3.o)
 .debug_pubnames
                0x000000d3       0x20 D:\synergy\ccm_wa\tmbo\ME_ECS\HMI_devel-tmbo_bes_1211\HMI_devel\gnuc\bes\lib\gcc\m68k-bes-rtems4.9\4.3.2\mcpu32/libgcc.a(_umoddi3.o)
 .debug_pubnames
                0x000000f3      0x12d D:\synergy\ccm_wa\tmbo\ME_ECS\HMI_devel-tmbo_bes_1211\HMI_devel\gnuc\bes\lib\gcc\m68k-bes-rtems4.9\4.3.2\mcpu32/libgcc.a(xfgnulib.o)
 .debug_pubnames
                0x00000220       0x20 D:\synergy\ccm_wa\tmbo\ME_ECS\HMI_devel-tmbo_bes_1211\HMI_devel\gnuc\bes\lib\gcc\m68k-bes-rtems4.9\4.3.2\mcpu32/libgcc.a(_clz.o)

.debug_str      0x00000000      0x32d
 .debug_str     0x00000000      0x117 D:\synergy\ccm_wa\tmbo\ME_ECS\HMI_devel-tmbo_bes_1211\HMI_devel\gnuc\bes\lib\gcc\m68k-bes-rtems4.9\4.3.2\mcpu32/libgcc.a(fpgnulib.o)
                                0x157 (size before relaxing)
 .debug_str     0x00000117      0x10f D:\synergy\ccm_wa\tmbo\ME_ECS\HMI_devel-tmbo_bes_1211\HMI_devel\gnuc\bes\lib\gcc\m68k-bes-rtems4.9\4.3.2\mcpu32/libgcc.a(_udivdi3.o)
                                0x1b7 (size before relaxing)
 .debug_str     0x00000226        0xa D:\synergy\ccm_wa\tmbo\ME_ECS\HMI_devel-tmbo_bes_1211\HMI_devel\gnuc\bes\lib\gcc\m68k-bes-rtems4.9\4.3.2\mcpu32/libgcc.a(_umoddi3.o)
                                0x1b7 (size before relaxing)
 .debug_str     0x00000230       0xfd D:\synergy\ccm_wa\tmbo\ME_ECS\HMI_devel-tmbo_bes_1211\HMI_devel\gnuc\bes\lib\gcc\m68k-bes-rtems4.9\4.3.2\mcpu32/libgcc.a(xfgnulib.o)
                                0x196 (size before relaxing)
 .debug_str     0x00000000      0x167 D:\synergy\ccm_wa\tmbo\ME_ECS\HMI_devel-tmbo_bes_1211\HMI_devel\gnuc\bes\lib\gcc\m68k-bes-rtems4.9\4.3.2\mcpu32/libgcc.a(_clz.o)
